
bmulib.o:     file format elf32-littlearm


Disassembly of section .text:

00000000 <one_latitude_table>:
       0:	e3500000 	cmp	r0, #0
       4:	e92d4070 	push	{r4, r5, r6, lr}
       8:	da000024 	ble	a0 <one_latitude_table+0xa0>
       c:	e5913000 	ldr	r3, [r1]
      10:	e1530002 	cmp	r3, r2
      14:	0a000021 	beq	a0 <one_latitude_table+0xa0>
      18:	e1520003 	cmp	r2, r3
      1c:	a281c008 	addge	ip, r1, #8
      20:	a3a03000 	movge	r3, #0
      24:	aa000005 	bge	40 <one_latitude_table+0x40>
      28:	ea00001c 	b	a0 <one_latitude_table+0xa0>
      2c:	e59c4000 	ldr	r4, [ip]
      30:	e1540002 	cmp	r4, r2
      34:	0a000018 	beq	9c <one_latitude_table+0x9c>
      38:	e28cc008 	add	ip, ip, #8
      3c:	ca000002 	bgt	4c <one_latitude_table+0x4c>
      40:	e2833001 	add	r3, r3, #1
      44:	e1500003 	cmp	r0, r3
      48:	cafffff7 	bgt	2c <one_latitude_table+0x2c>
      4c:	e3530000 	cmp	r3, #0
      50:	0a000012 	beq	a0 <one_latitude_table+0xa0>
      54:	e1530000 	cmp	r3, r0
      58:	0a000012 	beq	a8 <one_latitude_table+0xa8>
      5c:	e2430001 	sub	r0, r3, #1
      60:	e0815183 	add	r5, r1, r3, lsl #3
      64:	e791c183 	ldr	ip, [r1, r3, lsl #3]
      68:	e0814180 	add	r4, r1, r0, lsl #3
      6c:	e7913180 	ldr	r3, [r1, r0, lsl #3]
      70:	e5950004 	ldr	r0, [r5, #4]
      74:	e5944004 	ldr	r4, [r4, #4]
      78:	e0632002 	rsb	r2, r3, r2
      7c:	e153000c 	cmp	r3, ip
      80:	e0640000 	rsb	r0, r4, r0
      84:	e0000290 	mul	r0, r0, r2
      88:	0a000001 	beq	94 <one_latitude_table+0x94>
      8c:	e063100c 	rsb	r1, r3, ip
      90:	ebfffffe 	bl	0 <__aeabi_idiv>
      94:	e0800004 	add	r0, r0, r4
      98:	e8bd8070 	pop	{r4, r5, r6, pc}
      9c:	e1a0100c 	mov	r1, ip
      a0:	e5910004 	ldr	r0, [r1, #4]
      a4:	e8bd8070 	pop	{r4, r5, r6, pc}
      a8:	e0813183 	add	r3, r1, r3, lsl #3
      ac:	e5130004 	ldr	r0, [r3, #-4]
      b0:	e8bd8070 	pop	{r4, r5, r6, pc}

000000b4 <afe_register_read_word>:
      b4:	e92d47f0 	push	{r4, r5, r6, r7, r8, r9, sl, lr}
      b8:	e59f8084 	ldr	r8, [pc, #132]	; 144 <afe_register_read_word+0x90>
      bc:	e1a07000 	mov	r7, r0
      c0:	e1a0a001 	mov	sl, r1
      c4:	e3a04000 	mov	r4, #0
      c8:	e5983000 	ldr	r3, [r8]
      cc:	e1a01007 	mov	r1, r7
      d0:	e2844001 	add	r4, r4, #1
      d4:	e59f5068 	ldr	r5, [pc, #104]	; 144 <afe_register_read_word+0x90>
      d8:	e5930014 	ldr	r0, [r3, #20]
      dc:	e6ef4074 	uxtb	r4, r4
      e0:	ebfffffe 	bl	0 <i2c_smbus_read_word_data>
      e4:	e2506000 	subs	r6, r0, #0
      e8:	aa00000f 	bge	12c <afe_register_read_word+0x78>
      ec:	e3540008 	cmp	r4, #8
      f0:	1afffff4 	bne	c8 <afe_register_read_word+0x14>
      f4:	e5953004 	ldr	r3, [r5, #4]
      f8:	e5932028 	ldr	r2, [r3, #40]	; 0x28
      fc:	e2822001 	add	r2, r2, #1
     100:	e5832028 	str	r2, [r3, #40]	; 0x28
     104:	e5953000 	ldr	r3, [r5]
     108:	e5933010 	ldr	r3, [r3, #16]
     10c:	e5d3302c 	ldrb	r3, [r3, #44]	; 0x2c
     110:	e3530000 	cmp	r3, #0
     114:	1a000007 	bne	138 <afe_register_read_word+0x84>
     118:	e1a01006 	mov	r1, r6
     11c:	e59f0024 	ldr	r0, [pc, #36]	; 148 <afe_register_read_word+0x94>
     120:	ebfffffe 	bl	0 <printk>
     124:	e1a00006 	mov	r0, r6
     128:	e8bd87f0 	pop	{r4, r5, r6, r7, r8, r9, sl, pc}
     12c:	e1ca60b0 	strh	r6, [sl]
     130:	e1a00006 	mov	r0, r6
     134:	e8bd87f0 	pop	{r4, r5, r6, r7, r8, r9, sl, pc}
     138:	e59f000c 	ldr	r0, [pc, #12]	; 14c <afe_register_read_word+0x98>
     13c:	ebfffffe 	bl	0 <printk>
     140:	eafffff4 	b	118 <afe_register_read_word+0x64>
     144:	00000000 	andeq	r0, r0, r0
     148:	00000020 	andeq	r0, r0, r0, lsr #32
     14c:	00000000 	andeq	r0, r0, r0

00000150 <afe_read_board_offset>:
     150:	e92d41f0 	push	{r4, r5, r6, r7, r8, lr}
     154:	e59f50b8 	ldr	r5, [pc, #184]	; 214 <afe_read_board_offset+0xc4>
     158:	e1a08000 	mov	r8, r0
     15c:	e3a07000 	mov	r7, #0
     160:	e5953000 	ldr	r3, [r5]
     164:	e3a01018 	mov	r1, #24
     168:	e59f60a4 	ldr	r6, [pc, #164]	; 214 <afe_read_board_offset+0xc4>
     16c:	e5930014 	ldr	r0, [r3, #20]
     170:	ebfffffe 	bl	0 <i2c_smbus_read_word_data>
     174:	e2504000 	subs	r4, r0, #0
     178:	ba000011 	blt	1c4 <afe_read_board_offset+0x74>
     17c:	e5953000 	ldr	r3, [r5]
     180:	e6bf2074 	sxth	r2, r4
     184:	e3120b01 	tst	r2, #1024	; 0x400
     188:	e3a0004e 	mov	r0, #78	; 0x4e
     18c:	e1a02a82 	lsl	r2, r2, #21
     190:	e5933010 	ldr	r3, [r3, #16]
     194:	e1a02aa2 	lsr	r2, r2, #21
     198:	e5931000 	ldr	r1, [r3]
     19c:	11e02b02 	mvnne	r2, r2, lsl #22
     1a0:	11e02b22 	mvnne	r2, r2, lsr #22
     1a4:	e0811101 	add	r1, r1, r1, lsl #2
     1a8:	e0000290 	mul	r0, r0, r2
     1ac:	e1a01081 	lsl	r1, r1, #1
     1b0:	ebfffffe 	bl	0 <__aeabi_idiv>
     1b4:	e6bf0070 	sxth	r0, r0
     1b8:	e5880000 	str	r0, [r8]
     1bc:	e1a00004 	mov	r0, r4
     1c0:	e8bd81f0 	pop	{r4, r5, r6, r7, r8, pc}
     1c4:	e2877001 	add	r7, r7, #1
     1c8:	e6ef7077 	uxtb	r7, r7
     1cc:	e3570008 	cmp	r7, #8
     1d0:	1affffe2 	bne	160 <afe_read_board_offset+0x10>
     1d4:	e5963004 	ldr	r3, [r6, #4]
     1d8:	e5932028 	ldr	r2, [r3, #40]	; 0x28
     1dc:	e2822001 	add	r2, r2, #1
     1e0:	e5832028 	str	r2, [r3, #40]	; 0x28
     1e4:	e5963000 	ldr	r3, [r6]
     1e8:	e5933010 	ldr	r3, [r3, #16]
     1ec:	e5d3302c 	ldrb	r3, [r3, #44]	; 0x2c
     1f0:	e3530000 	cmp	r3, #0
     1f4:	1a000003 	bne	208 <afe_read_board_offset+0xb8>
     1f8:	e1a01004 	mov	r1, r4
     1fc:	e59f0014 	ldr	r0, [pc, #20]	; 218 <afe_read_board_offset+0xc8>
     200:	ebfffffe 	bl	0 <printk>
     204:	eaffffec 	b	1bc <afe_read_board_offset+0x6c>
     208:	e59f000c 	ldr	r0, [pc, #12]	; 21c <afe_read_board_offset+0xcc>
     20c:	ebfffffe 	bl	0 <printk>
     210:	eafffff8 	b	1f8 <afe_read_board_offset+0xa8>
     214:	00000000 	andeq	r0, r0, r0
     218:	00000020 	andeq	r0, r0, r0, lsr #32
     21c:	0000002c 	andeq	r0, r0, ip, lsr #32

00000220 <afe_read_cell_temp>:
     220:	e92d41f0 	push	{r4, r5, r6, r7, r8, lr}
     224:	e59f70fc 	ldr	r7, [pc, #252]	; 328 <afe_read_cell_temp+0x108>
     228:	e1a05000 	mov	r5, r0
     22c:	e3a08000 	mov	r8, #0
     230:	e5973000 	ldr	r3, [r7]
     234:	e3a0100c 	mov	r1, #12
     238:	e59f60e8 	ldr	r6, [pc, #232]	; 328 <afe_read_cell_temp+0x108>
     23c:	e5930014 	ldr	r0, [r3, #20]
     240:	ebfffffe 	bl	0 <i2c_smbus_read_word_data>
     244:	e2504000 	subs	r4, r0, #0
     248:	ba000020 	blt	2d0 <afe_read_cell_temp+0xb0>
     24c:	e5962000 	ldr	r2, [r6]
     250:	e7eb3254 	ubfx	r3, r4, #4, #12
     254:	e308051f 	movw	r0, #34079	; 0x851f
     258:	e34501eb 	movt	r0, #20971	; 0x51eb
     25c:	e592c010 	ldr	ip, [r2, #16]
     260:	e59c6014 	ldr	r6, [ip, #20]
     264:	e59c1008 	ldr	r1, [ip, #8]
     268:	e0060396 	mul	r6, r6, r3
     26c:	e0c37690 	smull	r7, r3, r0, r6
     270:	e1a06fc6 	asr	r6, r6, #31
     274:	e06632c3 	rsb	r3, r6, r3, asr #5
     278:	e6bf3073 	sxth	r3, r3
     27c:	e1510003 	cmp	r1, r3
     280:	da00000e 	ble	2c0 <afe_read_cell_temp+0xa0>
     284:	e3530000 	cmp	r3, #0
     288:	da00000c 	ble	2c0 <afe_read_cell_temp+0xa0>
     28c:	e59c0004 	ldr	r0, [ip, #4]
     290:	e0631001 	rsb	r1, r3, r1
     294:	e5926008 	ldr	r6, [r2, #8]
     298:	e5d27001 	ldrb	r7, [r2, #1]
     29c:	e0000390 	mul	r0, r0, r3
     2a0:	ebfffffe 	bl	0 <__aeabi_idiv>
     2a4:	e1a01006 	mov	r1, r6
     2a8:	e1a02000 	mov	r2, r0
     2ac:	e1a00007 	mov	r0, r7
     2b0:	ebffff52 	bl	0 <one_latitude_table>
     2b4:	e5850000 	str	r0, [r5]
     2b8:	e1a00004 	mov	r0, r4
     2bc:	e8bd81f0 	pop	{r4, r5, r6, r7, r8, pc}
     2c0:	e3a03019 	mov	r3, #25
     2c4:	e5853000 	str	r3, [r5]
     2c8:	e1a00004 	mov	r0, r4
     2cc:	e8bd81f0 	pop	{r4, r5, r6, r7, r8, pc}
     2d0:	e2888001 	add	r8, r8, #1
     2d4:	e3a00005 	mov	r0, #5
     2d8:	ebfffffe 	bl	0 <msleep>
     2dc:	e6ef8078 	uxtb	r8, r8
     2e0:	e3580008 	cmp	r8, #8
     2e4:	1affffd1 	bne	230 <afe_read_cell_temp+0x10>
     2e8:	e5963004 	ldr	r3, [r6, #4]
     2ec:	e5932028 	ldr	r2, [r3, #40]	; 0x28
     2f0:	e2822001 	add	r2, r2, #1
     2f4:	e5832028 	str	r2, [r3, #40]	; 0x28
     2f8:	e5963000 	ldr	r3, [r6]
     2fc:	e5933010 	ldr	r3, [r3, #16]
     300:	e5d3302c 	ldrb	r3, [r3, #44]	; 0x2c
     304:	e3530000 	cmp	r3, #0
     308:	1a000003 	bne	31c <afe_read_cell_temp+0xfc>
     30c:	e1a01004 	mov	r1, r4
     310:	e59f0014 	ldr	r0, [pc, #20]	; 32c <afe_read_cell_temp+0x10c>
     314:	ebfffffe 	bl	0 <printk>
     318:	eaffffea 	b	2c8 <afe_read_cell_temp+0xa8>
     31c:	e59f000c 	ldr	r0, [pc, #12]	; 330 <afe_read_cell_temp+0x110>
     320:	ebfffffe 	bl	0 <printk>
     324:	eafffff8 	b	30c <afe_read_cell_temp+0xec>
     328:	00000000 	andeq	r0, r0, r0
     32c:	00000020 	andeq	r0, r0, r0, lsr #32
     330:	00000040 	andeq	r0, r0, r0, asr #32

00000334 <afe_read_car>:
     334:	e92d41f0 	push	{r4, r5, r6, r7, r8, lr}
     338:	e59f60a4 	ldr	r6, [pc, #164]	; 3e4 <afe_read_car+0xb0>
     33c:	e1a08000 	mov	r8, r0
     340:	e3a07000 	mov	r7, #0
     344:	e5963000 	ldr	r3, [r6]
     348:	e3a01014 	mov	r1, #20
     34c:	e59f5090 	ldr	r5, [pc, #144]	; 3e4 <afe_read_car+0xb0>
     350:	e5930014 	ldr	r0, [r3, #20]
     354:	ebfffffe 	bl	0 <i2c_smbus_read_word_data>
     358:	e2504000 	subs	r4, r0, #0
     35c:	ba00000a 	blt	38c <afe_read_car+0x58>
     360:	e5952000 	ldr	r2, [r5]
     364:	e6bf3074 	sxth	r3, r4
     368:	e5922010 	ldr	r2, [r2, #16]
     36c:	e592000c 	ldr	r0, [r2, #12]
     370:	e5921000 	ldr	r1, [r2]
     374:	e0000390 	mul	r0, r0, r3
     378:	ebfffffe 	bl	0 <__aeabi_idiv>
     37c:	e6bf0070 	sxth	r0, r0
     380:	e5880000 	str	r0, [r8]
     384:	e1a00004 	mov	r0, r4
     388:	e8bd81f0 	pop	{r4, r5, r6, r7, r8, pc}
     38c:	e2877001 	add	r7, r7, #1
     390:	e3a00005 	mov	r0, #5
     394:	ebfffffe 	bl	0 <msleep>
     398:	e6ef7077 	uxtb	r7, r7
     39c:	e3570008 	cmp	r7, #8
     3a0:	1affffe7 	bne	344 <afe_read_car+0x10>
     3a4:	e5953004 	ldr	r3, [r5, #4]
     3a8:	e5932028 	ldr	r2, [r3, #40]	; 0x28
     3ac:	e2822001 	add	r2, r2, #1
     3b0:	e5832028 	str	r2, [r3, #40]	; 0x28
     3b4:	e5953000 	ldr	r3, [r5]
     3b8:	e5933010 	ldr	r3, [r3, #16]
     3bc:	e5d3302c 	ldrb	r3, [r3, #44]	; 0x2c
     3c0:	e3530000 	cmp	r3, #0
     3c4:	1a000003 	bne	3d8 <afe_read_car+0xa4>
     3c8:	e1a01004 	mov	r1, r4
     3cc:	e59f0014 	ldr	r0, [pc, #20]	; 3e8 <afe_read_car+0xb4>
     3d0:	ebfffffe 	bl	0 <printk>
     3d4:	eaffffea 	b	384 <afe_read_car+0x50>
     3d8:	e59f000c 	ldr	r0, [pc, #12]	; 3ec <afe_read_car+0xb8>
     3dc:	ebfffffe 	bl	0 <printk>
     3e0:	eafffff8 	b	3c8 <afe_read_car+0x94>
     3e4:	00000000 	andeq	r0, r0, r0
     3e8:	00000020 	andeq	r0, r0, r0, lsr #32
     3ec:	0000002c 	andeq	r0, r0, ip, lsr #32

000003f0 <afe_read_current>:
     3f0:	e92d47f0 	push	{r4, r5, r6, r7, r8, r9, sl, lr}
     3f4:	e308751f 	movw	r7, #34079	; 0x851f
     3f8:	e59f60cc 	ldr	r6, [pc, #204]	; 4cc <afe_read_current+0xdc>
     3fc:	e1a0a000 	mov	sl, r0
     400:	e34571eb 	movt	r7, #20971	; 0x51eb
     404:	e3a05000 	mov	r5, #0
     408:	e5963000 	ldr	r3, [r6]
     40c:	e3a01012 	mov	r1, #18
     410:	e59f80b4 	ldr	r8, [pc, #180]	; 4cc <afe_read_current+0xdc>
     414:	e5930014 	ldr	r0, [r3, #20]
     418:	ebfffffe 	bl	0 <i2c_smbus_read_word_data>
     41c:	e5962000 	ldr	r2, [r6]
     420:	e5922010 	ldr	r2, [r2, #16]
     424:	e5921000 	ldr	r1, [r2]
     428:	e6bf3070 	sxth	r3, r0
     42c:	e1a04000 	mov	r4, r0
     430:	e5920010 	ldr	r0, [r2, #16]
     434:	e0000390 	mul	r0, r0, r3
     438:	ebfffffe 	bl	0 <__aeabi_idiv>
     43c:	e1a02000 	mov	r2, r0
     440:	e3a00005 	mov	r0, #5
     444:	e0c31297 	smull	r1, r3, r7, r2
     448:	e1a02fc2 	asr	r2, r2, #31
     44c:	e0623053 	rsb	r3, r2, r3, asr r0
     450:	e3530000 	cmp	r3, #0
     454:	e2832003 	add	r2, r3, #3
     458:	b1a03002 	movlt	r3, r2
     45c:	e3540000 	cmp	r4, #0
     460:	e1a03143 	asr	r3, r3, #2
     464:	aa000012 	bge	4b4 <afe_read_current+0xc4>
     468:	e2855001 	add	r5, r5, #1
     46c:	ebfffffe 	bl	0 <msleep>
     470:	e6ef5075 	uxtb	r5, r5
     474:	e3550008 	cmp	r5, #8
     478:	1affffe2 	bne	408 <afe_read_current+0x18>
     47c:	e5983004 	ldr	r3, [r8, #4]
     480:	e5932028 	ldr	r2, [r3, #40]	; 0x28
     484:	e2822001 	add	r2, r2, #1
     488:	e5832028 	str	r2, [r3, #40]	; 0x28
     48c:	e5983000 	ldr	r3, [r8]
     490:	e5933010 	ldr	r3, [r3, #16]
     494:	e5d3302c 	ldrb	r3, [r3, #44]	; 0x2c
     498:	e3530000 	cmp	r3, #0
     49c:	1a000007 	bne	4c0 <afe_read_current+0xd0>
     4a0:	e1a01004 	mov	r1, r4
     4a4:	e59f0024 	ldr	r0, [pc, #36]	; 4d0 <afe_read_current+0xe0>
     4a8:	ebfffffe 	bl	0 <printk>
     4ac:	e1a00004 	mov	r0, r4
     4b0:	e8bd87f0 	pop	{r4, r5, r6, r7, r8, r9, sl, pc}
     4b4:	e58a3000 	str	r3, [sl]
     4b8:	e1a00004 	mov	r0, r4
     4bc:	e8bd87f0 	pop	{r4, r5, r6, r7, r8, r9, sl, pc}
     4c0:	e59f000c 	ldr	r0, [pc, #12]	; 4d4 <afe_read_current+0xe4>
     4c4:	ebfffffe 	bl	0 <printk>
     4c8:	eafffff4 	b	4a0 <afe_read_current+0xb0>
     4cc:	00000000 	andeq	r0, r0, r0
     4d0:	00000020 	andeq	r0, r0, r0, lsr #32
     4d4:	00000058 	andeq	r0, r0, r8, asr r0

000004d8 <afe_read_cell_volt>:
     4d8:	e92d41f0 	push	{r4, r5, r6, r7, r8, lr}
     4dc:	e59f60e8 	ldr	r6, [pc, #232]	; 5cc <afe_read_cell_volt+0xf4>
     4e0:	e1a08000 	mov	r8, r0
     4e4:	e3a07000 	mov	r7, #0
     4e8:	e5963000 	ldr	r3, [r6]
     4ec:	e3a0100e 	mov	r1, #14
     4f0:	e59f50d4 	ldr	r5, [pc, #212]	; 5cc <afe_read_cell_volt+0xf4>
     4f4:	e5930014 	ldr	r0, [r3, #20]
     4f8:	ebfffffe 	bl	0 <i2c_smbus_read_word_data>
     4fc:	e2504000 	subs	r4, r0, #0
     500:	ba000018 	blt	568 <afe_read_cell_volt+0x90>
     504:	e5951000 	ldr	r1, [r5]
     508:	e7eb3254 	ubfx	r3, r4, #4, #12
     50c:	e59f50bc 	ldr	r5, [pc, #188]	; 5d0 <afe_read_cell_volt+0xf8>
     510:	e308251f 	movw	r2, #34079	; 0x851f
     514:	e34521eb 	movt	r2, #20971	; 0x51eb
     518:	e5911010 	ldr	r1, [r1, #16]
     51c:	e5d50000 	ldrb	r0, [r5]
     520:	e5911014 	ldr	r1, [r1, #20]
     524:	e3500001 	cmp	r0, #1
     528:	e0010391 	mul	r1, r1, r3
     52c:	e0c30192 	smull	r0, r3, r2, r1
     530:	e1a01fc1 	asr	r1, r1, #31
     534:	e06132c3 	rsb	r3, r1, r3, asr #5
     538:	e6bf3073 	sxth	r3, r3
     53c:	9a00001c 	bls	5b4 <afe_read_cell_volt+0xdc>
     540:	e3a00ffa 	mov	r0, #1000	; 0x3e8
     544:	e5951004 	ldr	r1, [r5, #4]
     548:	e0000390 	mul	r0, r0, r3
     54c:	ebfffffe 	bl	0 <__aeabi_idiv>
     550:	e5880000 	str	r0, [r8]
     554:	e5d51000 	ldrb	r1, [r5]
     558:	ebfffffe 	bl	0 <__aeabi_idiv>
     55c:	e5880000 	str	r0, [r8]
     560:	e1a00004 	mov	r0, r4
     564:	e8bd81f0 	pop	{r4, r5, r6, r7, r8, pc}
     568:	e2877001 	add	r7, r7, #1
     56c:	e3a00005 	mov	r0, #5
     570:	ebfffffe 	bl	0 <msleep>
     574:	e6ef7077 	uxtb	r7, r7
     578:	e3570008 	cmp	r7, #8
     57c:	1affffd9 	bne	4e8 <afe_read_cell_volt+0x10>
     580:	e5953004 	ldr	r3, [r5, #4]
     584:	e5932028 	ldr	r2, [r3, #40]	; 0x28
     588:	e2822001 	add	r2, r2, #1
     58c:	e5832028 	str	r2, [r3, #40]	; 0x28
     590:	e5953000 	ldr	r3, [r5]
     594:	e5933010 	ldr	r3, [r3, #16]
     598:	e5d3302c 	ldrb	r3, [r3, #44]	; 0x2c
     59c:	e3530000 	cmp	r3, #0
     5a0:	1a000006 	bne	5c0 <afe_read_cell_volt+0xe8>
     5a4:	e1a01004 	mov	r1, r4
     5a8:	e59f0024 	ldr	r0, [pc, #36]	; 5d4 <afe_read_cell_volt+0xfc>
     5ac:	ebfffffe 	bl	0 <printk>
     5b0:	eaffffea 	b	560 <afe_read_cell_volt+0x88>
     5b4:	e5883000 	str	r3, [r8]
     5b8:	e1a00004 	mov	r0, r4
     5bc:	e8bd81f0 	pop	{r4, r5, r6, r7, r8, pc}
     5c0:	e59f0010 	ldr	r0, [pc, #16]	; 5d8 <afe_read_cell_volt+0x100>
     5c4:	ebfffffe 	bl	0 <printk>
     5c8:	eafffff5 	b	5a4 <afe_read_cell_volt+0xcc>
	...
     5d4:	00000020 	andeq	r0, r0, r0, lsr #32
     5d8:	00000070 	andeq	r0, r0, r0, ror r0

000005dc <afe_read_ocv_volt>:
     5dc:	e92d41f0 	push	{r4, r5, r6, r7, r8, lr}
     5e0:	e59f60e0 	ldr	r6, [pc, #224]	; 6c8 <afe_read_ocv_volt+0xec>
     5e4:	e1a08000 	mov	r8, r0
     5e8:	e3a07000 	mov	r7, #0
     5ec:	e5963000 	ldr	r3, [r6]
     5f0:	e3a01010 	mov	r1, #16
     5f4:	e59f50cc 	ldr	r5, [pc, #204]	; 6c8 <afe_read_ocv_volt+0xec>
     5f8:	e5930014 	ldr	r0, [r3, #20]
     5fc:	ebfffffe 	bl	0 <i2c_smbus_read_word_data>
     600:	e2504000 	subs	r4, r0, #0
     604:	ba000018 	blt	66c <afe_read_ocv_volt+0x90>
     608:	e5951000 	ldr	r1, [r5]
     60c:	e7eb3254 	ubfx	r3, r4, #4, #12
     610:	e59f50b4 	ldr	r5, [pc, #180]	; 6cc <afe_read_ocv_volt+0xf0>
     614:	e308251f 	movw	r2, #34079	; 0x851f
     618:	e34521eb 	movt	r2, #20971	; 0x51eb
     61c:	e5911010 	ldr	r1, [r1, #16]
     620:	e5d50000 	ldrb	r0, [r5]
     624:	e5911014 	ldr	r1, [r1, #20]
     628:	e3500001 	cmp	r0, #1
     62c:	e0010391 	mul	r1, r1, r3
     630:	e0c30192 	smull	r0, r3, r2, r1
     634:	e1a01fc1 	asr	r1, r1, #31
     638:	e06132c3 	rsb	r3, r1, r3, asr #5
     63c:	e6bf3073 	sxth	r3, r3
     640:	9a00001a 	bls	6b0 <afe_read_ocv_volt+0xd4>
     644:	e3a00ffa 	mov	r0, #1000	; 0x3e8
     648:	e5951004 	ldr	r1, [r5, #4]
     64c:	e0000390 	mul	r0, r0, r3
     650:	ebfffffe 	bl	0 <__aeabi_idiv>
     654:	e5880000 	str	r0, [r8]
     658:	e5d51000 	ldrb	r1, [r5]
     65c:	ebfffffe 	bl	0 <__aeabi_idiv>
     660:	e5880000 	str	r0, [r8]
     664:	e1a00004 	mov	r0, r4
     668:	e8bd81f0 	pop	{r4, r5, r6, r7, r8, pc}
     66c:	e2877001 	add	r7, r7, #1
     670:	e6ef7077 	uxtb	r7, r7
     674:	e3570008 	cmp	r7, #8
     678:	1affffdb 	bne	5ec <afe_read_ocv_volt+0x10>
     67c:	e5953004 	ldr	r3, [r5, #4]
     680:	e5932028 	ldr	r2, [r3, #40]	; 0x28
     684:	e2822001 	add	r2, r2, #1
     688:	e5832028 	str	r2, [r3, #40]	; 0x28
     68c:	e5953000 	ldr	r3, [r5]
     690:	e5933010 	ldr	r3, [r3, #16]
     694:	e5d3302c 	ldrb	r3, [r3, #44]	; 0x2c
     698:	e3530000 	cmp	r3, #0
     69c:	1a000006 	bne	6bc <afe_read_ocv_volt+0xe0>
     6a0:	e1a01004 	mov	r1, r4
     6a4:	e59f0024 	ldr	r0, [pc, #36]	; 6d0 <afe_read_ocv_volt+0xf4>
     6a8:	ebfffffe 	bl	0 <printk>
     6ac:	eaffffec 	b	664 <afe_read_ocv_volt+0x88>
     6b0:	e5883000 	str	r3, [r8]
     6b4:	e1a00004 	mov	r0, r4
     6b8:	e8bd81f0 	pop	{r4, r5, r6, r7, r8, pc}
     6bc:	e59f0010 	ldr	r0, [pc, #16]	; 6d4 <afe_read_ocv_volt+0xf8>
     6c0:	ebfffffe 	bl	0 <printk>
     6c4:	eafffff5 	b	6a0 <afe_read_ocv_volt+0xc4>
	...
     6d0:	00000020 	andeq	r0, r0, r0, lsr #32
     6d4:	00000070 	andeq	r0, r0, r0, ror r0

000006d8 <oz8806_write_word>:
     6d8:	e92d4070 	push	{r4, r5, r6, lr}
     6dc:	e59f51c0 	ldr	r5, [pc, #448]	; 8a4 <oz8806_write_word+0x1cc>
     6e0:	e1a04000 	mov	r4, r0
     6e4:	e1a06001 	mov	r6, r1
     6e8:	e5d53008 	ldrb	r3, [r5, #8]
     6ec:	e3530000 	cmp	r3, #0
     6f0:	0a000065 	beq	88c <oz8806_write_word+0x1b4>
     6f4:	e3a03000 	mov	r3, #0
     6f8:	e3a01080 	mov	r1, #128	; 0x80
     6fc:	e1a02003 	mov	r2, r3
     700:	e3120080 	tst	r2, #128	; 0x80
     704:	e1a00082 	lsl	r0, r2, #1
     708:	11a02000 	movne	r2, r0
     70c:	e2833001 	add	r3, r3, #1
     710:	06ef2070 	uxtbeq	r2, r0
     714:	16ef2072 	uxtbne	r2, r2
     718:	12222007 	eorne	r2, r2, #7
     71c:	e311005e 	tst	r1, #94	; 0x5e
     720:	12222007 	eorne	r2, r2, #7
     724:	e3530008 	cmp	r3, #8
     728:	e1a010a1 	lsr	r1, r1, #1
     72c:	1afffff3 	bne	700 <oz8806_write_word+0x28>
     730:	e3a01000 	mov	r1, #0
     734:	e3a03080 	mov	r3, #128	; 0x80
     738:	e3120080 	tst	r2, #128	; 0x80
     73c:	e1a00082 	lsl	r0, r2, #1
     740:	11a02000 	movne	r2, r0
     744:	e2811001 	add	r1, r1, #1
     748:	06ef2070 	uxtbeq	r2, r0
     74c:	16ef2072 	uxtbne	r2, r2
     750:	12222007 	eorne	r2, r2, #7
     754:	e1130004 	tst	r3, r4
     758:	12222007 	eorne	r2, r2, #7
     75c:	e3510008 	cmp	r1, #8
     760:	e1a030a3 	lsr	r3, r3, #1
     764:	1afffff3 	bne	738 <oz8806_write_word+0x60>
     768:	e6efc076 	uxtb	ip, r6
     76c:	e3a01000 	mov	r1, #0
     770:	e3a03080 	mov	r3, #128	; 0x80
     774:	e3120080 	tst	r2, #128	; 0x80
     778:	e1a00082 	lsl	r0, r2, #1
     77c:	11a02000 	movne	r2, r0
     780:	e2811001 	add	r1, r1, #1
     784:	06ef2070 	uxtbeq	r2, r0
     788:	16ef2072 	uxtbne	r2, r2
     78c:	12222007 	eorne	r2, r2, #7
     790:	e113000c 	tst	r3, ip
     794:	12222007 	eorne	r2, r2, #7
     798:	e3510008 	cmp	r1, #8
     79c:	e1a030a3 	lsr	r3, r3, #1
     7a0:	1afffff3 	bne	774 <oz8806_write_word+0x9c>
     7a4:	e5953000 	ldr	r3, [r5]
     7a8:	e18c2402 	orr	r2, ip, r2, lsl #8
     7ac:	e1a01004 	mov	r1, r4
     7b0:	e5930014 	ldr	r0, [r3, #20]
     7b4:	ebfffffe 	bl	0 <i2c_smbus_write_word_data>
     7b8:	e3500000 	cmp	r0, #0
     7bc:	b8bd8070 	poplt	{r4, r5, r6, pc}
     7c0:	e3a03000 	mov	r3, #0
     7c4:	e3a01080 	mov	r1, #128	; 0x80
     7c8:	e1a02003 	mov	r2, r3
     7cc:	e3120080 	tst	r2, #128	; 0x80
     7d0:	e1a00082 	lsl	r0, r2, #1
     7d4:	11a02000 	movne	r2, r0
     7d8:	e2833001 	add	r3, r3, #1
     7dc:	06ef2070 	uxtbeq	r2, r0
     7e0:	16ef2072 	uxtbne	r2, r2
     7e4:	12222007 	eorne	r2, r2, #7
     7e8:	e311005e 	tst	r1, #94	; 0x5e
     7ec:	12222007 	eorne	r2, r2, #7
     7f0:	e3530008 	cmp	r3, #8
     7f4:	e1a010a1 	lsr	r1, r1, #1
     7f8:	1afffff3 	bne	7cc <oz8806_write_word+0xf4>
     7fc:	e2844001 	add	r4, r4, #1
     800:	e3a00000 	mov	r0, #0
     804:	e3a03080 	mov	r3, #128	; 0x80
     808:	e6ef1074 	uxtb	r1, r4
     80c:	e3120080 	tst	r2, #128	; 0x80
     810:	e1a0c082 	lsl	ip, r2, #1
     814:	11a0200c 	movne	r2, ip
     818:	e2800001 	add	r0, r0, #1
     81c:	06ef207c 	uxtbeq	r2, ip
     820:	16ef2072 	uxtbne	r2, r2
     824:	12222007 	eorne	r2, r2, #7
     828:	e1130001 	tst	r3, r1
     82c:	12222007 	eorne	r2, r2, #7
     830:	e3500008 	cmp	r0, #8
     834:	e1a030a3 	lsr	r3, r3, #1
     838:	1afffff3 	bne	80c <oz8806_write_word+0x134>
     83c:	e1a06426 	lsr	r6, r6, #8
     840:	e3a00000 	mov	r0, #0
     844:	e3a03080 	mov	r3, #128	; 0x80
     848:	e3120080 	tst	r2, #128	; 0x80
     84c:	e1a0c082 	lsl	ip, r2, #1
     850:	11a0200c 	movne	r2, ip
     854:	e2800001 	add	r0, r0, #1
     858:	06ef207c 	uxtbeq	r2, ip
     85c:	16ef2072 	uxtbne	r2, r2
     860:	12222007 	eorne	r2, r2, #7
     864:	e1130006 	tst	r3, r6
     868:	12222007 	eorne	r2, r2, #7
     86c:	e3500008 	cmp	r0, #8
     870:	e1a030a3 	lsr	r3, r3, #1
     874:	1afffff3 	bne	848 <oz8806_write_word+0x170>
     878:	e5953000 	ldr	r3, [r5]
     87c:	e1862402 	orr	r2, r6, r2, lsl #8
     880:	e5930014 	ldr	r0, [r3, #20]
     884:	e8bd4070 	pop	{r4, r5, r6, lr}
     888:	eafffffe 	b	0 <i2c_smbus_write_word_data>
     88c:	e5953000 	ldr	r3, [r5]
     890:	e1a01000 	mov	r1, r0
     894:	e1a02006 	mov	r2, r6
     898:	e5930014 	ldr	r0, [r3, #20]
     89c:	e8bd4070 	pop	{r4, r5, r6, lr}
     8a0:	eafffffe 	b	0 <i2c_smbus_write_word_data>
     8a4:	00000000 	andeq	r0, r0, r0

000008a8 <afe_write_car>:
     8a8:	e92d41f0 	push	{r4, r5, r6, r7, r8, lr}
     8ac:	e59f8090 	ldr	r8, [pc, #144]	; 944 <afe_write_car+0x9c>
     8b0:	e1a07000 	mov	r7, r0
     8b4:	e3a04000 	mov	r4, #0
     8b8:	e5983000 	ldr	r3, [r8]
     8bc:	e59f5080 	ldr	r5, [pc, #128]	; 944 <afe_write_car+0x9c>
     8c0:	e5933010 	ldr	r3, [r3, #16]
     8c4:	e5930000 	ldr	r0, [r3]
     8c8:	e593100c 	ldr	r1, [r3, #12]
     8cc:	e0000790 	mul	r0, r0, r7
     8d0:	ebfffffe 	bl	0 <__aeabi_idiv>
     8d4:	e6ff1070 	uxth	r1, r0
     8d8:	e3a00014 	mov	r0, #20
     8dc:	ebffff7d 	bl	6d8 <oz8806_write_word>
     8e0:	e2506000 	subs	r6, r0, #0
     8e4:	e3a00005 	mov	r0, #5
     8e8:	aa000010 	bge	930 <afe_write_car+0x88>
     8ec:	e2844001 	add	r4, r4, #1
     8f0:	ebfffffe 	bl	0 <msleep>
     8f4:	e6ef4074 	uxtb	r4, r4
     8f8:	e3540008 	cmp	r4, #8
     8fc:	1affffed 	bne	8b8 <afe_write_car+0x10>
     900:	e5953004 	ldr	r3, [r5, #4]
     904:	e5932028 	ldr	r2, [r3, #40]	; 0x28
     908:	e2822001 	add	r2, r2, #1
     90c:	e5832028 	str	r2, [r3, #40]	; 0x28
     910:	e5953000 	ldr	r3, [r5]
     914:	e5933010 	ldr	r3, [r3, #16]
     918:	e5d3302c 	ldrb	r3, [r3, #44]	; 0x2c
     91c:	e3530000 	cmp	r3, #0
     920:	1a000004 	bne	938 <afe_write_car+0x90>
     924:	e59f001c 	ldr	r0, [pc, #28]	; 948 <afe_write_car+0xa0>
     928:	e1a01006 	mov	r1, r6
     92c:	ebfffffe 	bl	0 <printk>
     930:	e1a00006 	mov	r0, r6
     934:	e8bd81f0 	pop	{r4, r5, r6, r7, r8, pc}
     938:	e59f000c 	ldr	r0, [pc, #12]	; 94c <afe_write_car+0xa4>
     93c:	ebfffffe 	bl	0 <printk>
     940:	eafffff7 	b	924 <afe_write_car+0x7c>
     944:	00000000 	andeq	r0, r0, r0
     948:	00000020 	andeq	r0, r0, r0, lsr #32
     94c:	0000008c 	andeq	r0, r0, ip, lsl #1

00000950 <afe_write_board_offset>:
     950:	e92d47f0 	push	{r4, r5, r6, r7, r8, r9, sl, lr}
     954:	e30270d3 	movw	r7, #8403	; 0x20d3
     958:	e59f8140 	ldr	r8, [pc, #320]	; aa0 <afe_write_board_offset+0x150>
     95c:	e1a05000 	mov	r5, r0
     960:	e34d720d 	movt	r7, #53773	; 0xd20d
     964:	e3a04000 	mov	r4, #0
     968:	e300a3ff 	movw	sl, #1023	; 0x3ff
     96c:	ea000014 	b	9c4 <afe_write_board_offset+0x74>
     970:	e5983000 	ldr	r3, [r8]
     974:	e5933010 	ldr	r3, [r3, #16]
     978:	e5933000 	ldr	r3, [r3]
     97c:	e0833103 	add	r3, r3, r3, lsl #2
     980:	e1a03083 	lsl	r3, r3, #1
     984:	e0030395 	mul	r3, r5, r3
     988:	e0c12397 	smull	r2, r1, r7, r3
     98c:	e1a02fc3 	asr	r2, r3, #31
     990:	e0811003 	add	r1, r1, r3
     994:	e0621341 	rsb	r1, r2, r1, asr #6
     998:	e151000a 	cmp	r1, sl
     99c:	a1a0100a 	movge	r1, sl
     9a0:	e6ff1071 	uxth	r1, r1
     9a4:	ebffff4b 	bl	6d8 <oz8806_write_word>
     9a8:	e1a06000 	mov	r6, r0
     9ac:	e2844001 	add	r4, r4, #1
     9b0:	e3560000 	cmp	r6, #0
     9b4:	e6ef4074 	uxtb	r4, r4
     9b8:	aa00000f 	bge	9fc <afe_write_board_offset+0xac>
     9bc:	e3540008 	cmp	r4, #8
     9c0:	0a000025 	beq	a5c <afe_write_board_offset+0x10c>
     9c4:	e3550000 	cmp	r5, #0
     9c8:	e3a00018 	mov	r0, #24
     9cc:	caffffe7 	bgt	970 <afe_write_board_offset+0x20>
     9d0:	e30c0800 	movw	r0, #51200	; 0xc800
     9d4:	e1a01005 	mov	r1, r5
     9d8:	e34f0ffe 	movt	r0, #65534	; 0xfffe
     9dc:	1a000008 	bne	a04 <afe_write_board_offset+0xb4>
     9e0:	e3a00018 	mov	r0, #24
     9e4:	e2844001 	add	r4, r4, #1
     9e8:	ebffff3a 	bl	6d8 <oz8806_write_word>
     9ec:	e6ef4074 	uxtb	r4, r4
     9f0:	e1a06000 	mov	r6, r0
     9f4:	e3560000 	cmp	r6, #0
     9f8:	baffffef 	blt	9bc <afe_write_board_offset+0x6c>
     9fc:	e1a00006 	mov	r0, r6
     a00:	e8bd87f0 	pop	{r4, r5, r6, r7, r8, r9, sl, pc}
     a04:	e5983000 	ldr	r3, [r8]
     a08:	e5933010 	ldr	r3, [r3, #16]
     a0c:	e5936000 	ldr	r6, [r3]
     a10:	e0866106 	add	r6, r6, r6, lsl #2
     a14:	e1a06086 	lsl	r6, r6, #1
     a18:	e1a01006 	mov	r1, r6
     a1c:	ebfffffe 	bl	0 <__aeabi_idiv>
     a20:	e1500005 	cmp	r0, r5
     a24:	a1a03000 	movge	r3, r0
     a28:	b1a03005 	movlt	r3, r5
     a2c:	e3a00018 	mov	r0, #24
     a30:	e0060396 	mul	r6, r6, r3
     a34:	e0c13697 	smull	r3, r1, r7, r6
     a38:	e1a03fc6 	asr	r3, r6, #31
     a3c:	e0816006 	add	r6, r1, r6
     a40:	e0631346 	rsb	r1, r3, r6, asr #6
     a44:	e1a01b01 	lsl	r1, r1, #22
     a48:	e1a01b21 	lsr	r1, r1, #22
     a4c:	e3811b01 	orr	r1, r1, #1024	; 0x400
     a50:	ebffff20 	bl	6d8 <oz8806_write_word>
     a54:	e1a06000 	mov	r6, r0
     a58:	eaffffd3 	b	9ac <afe_write_board_offset+0x5c>
     a5c:	e59f303c 	ldr	r3, [pc, #60]	; aa0 <afe_write_board_offset+0x150>
     a60:	e5932004 	ldr	r2, [r3, #4]
     a64:	e5921028 	ldr	r1, [r2, #40]	; 0x28
     a68:	e2811001 	add	r1, r1, #1
     a6c:	e5821028 	str	r1, [r2, #40]	; 0x28
     a70:	e5933000 	ldr	r3, [r3]
     a74:	e5933010 	ldr	r3, [r3, #16]
     a78:	e5d3302c 	ldrb	r3, [r3, #44]	; 0x2c
     a7c:	e3530000 	cmp	r3, #0
     a80:	1a000003 	bne	a94 <afe_write_board_offset+0x144>
     a84:	e1a01006 	mov	r1, r6
     a88:	e59f0014 	ldr	r0, [pc, #20]	; aa4 <afe_write_board_offset+0x154>
     a8c:	ebfffffe 	bl	0 <printk>
     a90:	eaffffd9 	b	9fc <afe_write_board_offset+0xac>
     a94:	e59f000c 	ldr	r0, [pc, #12]	; aa8 <afe_write_board_offset+0x158>
     a98:	ebfffffe 	bl	0 <printk>
     a9c:	eafffff8 	b	a84 <afe_write_board_offset+0x134>
     aa0:	00000000 	andeq	r0, r0, r0
     aa4:	00000020 	andeq	r0, r0, r0, lsr #32
     aa8:	000000a4 	andeq	r0, r0, r4, lsr #1

00000aac <oz8806_over_flow_prevent>:
     aac:	e92d4070 	push	{r4, r5, r6, lr}
     ab0:	e59f42b4 	ldr	r4, [pc, #692]	; d6c <oz8806_over_flow_prevent+0x2c0>
     ab4:	e5943004 	ldr	r3, [r4, #4]
     ab8:	e5932008 	ldr	r2, [r3, #8]
     abc:	e3520000 	cmp	r2, #0
     ac0:	da000061 	ble	c4c <oz8806_over_flow_prevent+0x1a0>
     ac4:	e594100c 	ldr	r1, [r4, #12]
     ac8:	e5d10004 	ldrb	r0, [r1, #4]
     acc:	e3500000 	cmp	r0, #0
     ad0:	13a03000 	movne	r3, #0
     ad4:	15c13004 	strbne	r3, [r1, #4]
     ad8:	15943004 	ldrne	r3, [r4, #4]
     adc:	15932008 	ldrne	r2, [r3, #8]
     ae0:	e3520063 	cmp	r2, #99	; 0x63
     ae4:	da000058 	ble	c4c <oz8806_over_flow_prevent+0x1a0>
     ae8:	e5932004 	ldr	r2, [r3, #4]
     aec:	e3520000 	cmp	r2, #0
     af0:	ba00005f 	blt	c74 <oz8806_over_flow_prevent+0x1c8>
     af4:	e5943000 	ldr	r3, [r4]
     af8:	e3a01014 	mov	r1, #20
     afc:	e59f5268 	ldr	r5, [pc, #616]	; d6c <oz8806_over_flow_prevent+0x2c0>
     b00:	e5930014 	ldr	r0, [r3, #20]
     b04:	ebfffffe 	bl	0 <i2c_smbus_read_word_data>
     b08:	e3500000 	cmp	r0, #0
     b0c:	ba000078 	blt	cf4 <oz8806_over_flow_prevent+0x248>
     b10:	e5953000 	ldr	r3, [r5]
     b14:	e6bf1070 	sxth	r1, r0
     b18:	e3e00009 	mvn	r0, #9
     b1c:	e5932010 	ldr	r2, [r3, #16]
     b20:	e5923000 	ldr	r3, [r2]
     b24:	e0000390 	mul	r0, r0, r3
     b28:	e2800902 	add	r0, r0, #32768	; 0x8000
     b2c:	e1510000 	cmp	r1, r0
     b30:	ba000072 	blt	d00 <oz8806_over_flow_prevent+0x254>
     b34:	e5d2202c 	ldrb	r2, [r2, #44]	; 0x2c
     b38:	e3520000 	cmp	r2, #0
     b3c:	1a00007e 	bne	d3c <oz8806_over_flow_prevent+0x290>
     b40:	e3e0100e 	mvn	r1, #14
     b44:	e3a00014 	mov	r0, #20
     b48:	e0030391 	mul	r3, r1, r3
     b4c:	e2831902 	add	r1, r3, #32768	; 0x8000
     b50:	e6ff1071 	uxth	r1, r1
     b54:	ebfffedf 	bl	6d8 <oz8806_write_word>
     b58:	e5940004 	ldr	r0, [r4, #4]
     b5c:	e2800004 	add	r0, r0, #4
     b60:	ebfffdf3 	bl	334 <afe_read_car>
     b64:	e5943004 	ldr	r3, [r4, #4]
     b68:	e5932004 	ldr	r2, [r3, #4]
     b6c:	e5832020 	str	r2, [r3, #32]
     b70:	e5943000 	ldr	r3, [r4]
     b74:	e5932010 	ldr	r2, [r3, #16]
     b78:	e5922018 	ldr	r2, [r2, #24]
     b7c:	e308351f 	movw	r3, #34079	; 0x851f
     b80:	e34531eb 	movt	r3, #20971	; 0x51eb
     b84:	e5941004 	ldr	r1, [r4, #4]
     b88:	e0c30293 	smull	r0, r3, r3, r2
     b8c:	e591c004 	ldr	ip, [r1, #4]
     b90:	e5910024 	ldr	r0, [r1, #36]	; 0x24
     b94:	e1a02fc2 	asr	r2, r2, #31
     b98:	e06c1000 	rsb	r1, ip, r0
     b9c:	e06232c3 	rsb	r3, r2, r3, asr #5
     ba0:	e1510003 	cmp	r1, r3
     ba4:	ca000002 	bgt	bb4 <oz8806_over_flow_prevent+0x108>
     ba8:	e060c00c 	rsb	ip, r0, ip
     bac:	e153000c 	cmp	r3, ip
     bb0:	a8bd8070 	popge	{r4, r5, r6, pc}
     bb4:	e594300c 	ldr	r3, [r4, #12]
     bb8:	e308251f 	movw	r2, #34079	; 0x851f
     bbc:	e34521eb 	movt	r2, #20971	; 0x51eb
     bc0:	e59f41a4 	ldr	r4, [pc, #420]	; d6c <oz8806_over_flow_prevent+0x2c0>
     bc4:	e5933000 	ldr	r3, [r3]
     bc8:	e0c21392 	smull	r1, r2, r2, r3
     bcc:	e1a01fc3 	asr	r1, r3, #31
     bd0:	e06122c2 	rsb	r2, r1, r2, asr #5
     bd4:	e0623003 	rsb	r3, r2, r3
     bd8:	e1500003 	cmp	r0, r3
     bdc:	a8bd8070 	popge	{r4, r5, r6, pc}
     be0:	e1500002 	cmp	r0, r2
     be4:	d8bd8070 	pople	{r4, r5, r6, pc}
     be8:	ebffff2e 	bl	8a8 <afe_write_car>
     bec:	e5943004 	ldr	r3, [r4, #4]
     bf0:	e5932024 	ldr	r2, [r3, #36]	; 0x24
     bf4:	e5832020 	str	r2, [r3, #32]
     bf8:	e5943004 	ldr	r3, [r4, #4]
     bfc:	e5932024 	ldr	r2, [r3, #36]	; 0x24
     c00:	e5832004 	str	r2, [r3, #4]
     c04:	e5943000 	ldr	r3, [r4]
     c08:	e5933010 	ldr	r3, [r3, #16]
     c0c:	e5d3302c 	ldrb	r3, [r3, #44]	; 0x2c
     c10:	e3530000 	cmp	r3, #0
     c14:	08bd8070 	popeq	{r4, r5, r6, pc}
     c18:	e5943004 	ldr	r3, [r4, #4]
     c1c:	e59f014c 	ldr	r0, [pc, #332]	; d70 <oz8806_over_flow_prevent+0x2c4>
     c20:	e5931020 	ldr	r1, [r3, #32]
     c24:	ebfffffe 	bl	0 <printk>
     c28:	e5943004 	ldr	r3, [r4, #4]
     c2c:	e59f0140 	ldr	r0, [pc, #320]	; d74 <oz8806_over_flow_prevent+0x2c8>
     c30:	e5931004 	ldr	r1, [r3, #4]
     c34:	ebfffffe 	bl	0 <printk>
     c38:	e5943004 	ldr	r3, [r4, #4]
     c3c:	e59f0134 	ldr	r0, [pc, #308]	; d78 <oz8806_over_flow_prevent+0x2cc>
     c40:	e5931024 	ldr	r1, [r3, #36]	; 0x24
     c44:	e8bd4070 	pop	{r4, r5, r6, lr}
     c48:	eafffffe 	b	0 <printk>
     c4c:	e594200c 	ldr	r2, [r4, #12]
     c50:	e5d21005 	ldrb	r1, [r2, #5]
     c54:	e3510000 	cmp	r1, #0
     c58:	13a03000 	movne	r3, #0
     c5c:	15c23005 	strbne	r3, [r2, #5]
     c60:	159f3104 	ldrne	r3, [pc, #260]	; d6c <oz8806_over_flow_prevent+0x2c0>
     c64:	15933004 	ldrne	r3, [r3, #4]
     c68:	e5932004 	ldr	r2, [r3, #4]
     c6c:	e3520000 	cmp	r2, #0
     c70:	aaffff9f 	bge	af4 <oz8806_over_flow_prevent+0x48>
     c74:	e5941000 	ldr	r1, [r4]
     c78:	e593000c 	ldr	r0, [r3, #12]
     c7c:	e59f20e8 	ldr	r2, [pc, #232]	; d6c <oz8806_over_flow_prevent+0x2c0>
     c80:	e5911010 	ldr	r1, [r1, #16]
     c84:	e591101c 	ldr	r1, [r1, #28]
     c88:	e24110c8 	sub	r1, r1, #200	; 0xc8
     c8c:	e1500001 	cmp	r0, r1
     c90:	aa000024 	bge	d28 <oz8806_over_flow_prevent+0x27c>
     c94:	e592100c 	ldr	r1, [r2, #12]
     c98:	e308251f 	movw	r2, #34079	; 0x851f
     c9c:	e5930008 	ldr	r0, [r3, #8]
     ca0:	e34521eb 	movt	r2, #20971	; 0x51eb
     ca4:	e591100c 	ldr	r1, [r1, #12]
     ca8:	e0010190 	mul	r1, r0, r1
     cac:	e1e00001 	mvn	r0, r1
     cb0:	e1a00fa0 	lsr	r0, r0, #31
     cb4:	e0c2c192 	smull	ip, r2, r2, r1
     cb8:	e06022c2 	rsb	r2, r0, r2, asr #5
     cbc:	e5832004 	str	r2, [r3, #4]
     cc0:	e5943004 	ldr	r3, [r4, #4]
     cc4:	e59f50a0 	ldr	r5, [pc, #160]	; d6c <oz8806_over_flow_prevent+0x2c0>
     cc8:	e5930004 	ldr	r0, [r3, #4]
     ccc:	ebfffef5 	bl	8a8 <afe_write_car>
     cd0:	e5943004 	ldr	r3, [r4, #4]
     cd4:	e3a01014 	mov	r1, #20
     cd8:	e5932004 	ldr	r2, [r3, #4]
     cdc:	e5832020 	str	r2, [r3, #32]
     ce0:	e5943000 	ldr	r3, [r4]
     ce4:	e5930014 	ldr	r0, [r3, #20]
     ce8:	ebfffffe 	bl	0 <i2c_smbus_read_word_data>
     cec:	e3500000 	cmp	r0, #0
     cf0:	aaffff86 	bge	b10 <oz8806_over_flow_prevent+0x64>
     cf4:	e5953000 	ldr	r3, [r5]
     cf8:	e5932010 	ldr	r2, [r3, #16]
     cfc:	eaffff9d 	b	b78 <oz8806_over_flow_prevent+0xcc>
     d00:	e0830103 	add	r0, r3, r3, lsl #2
     d04:	e1510080 	cmp	r1, r0, lsl #1
     d08:	caffff9a 	bgt	b78 <oz8806_over_flow_prevent+0xcc>
     d0c:	e5d2202c 	ldrb	r2, [r2, #44]	; 0x2c
     d10:	e3520000 	cmp	r2, #0
     d14:	1a00000e 	bne	d54 <oz8806_over_flow_prevent+0x2a8>
     d18:	e0633203 	rsb	r3, r3, r3, lsl #4
     d1c:	e3a00014 	mov	r0, #20
     d20:	e6ff1073 	uxth	r1, r3
     d24:	eaffff8a 	b	b54 <oz8806_over_flow_prevent+0xa8>
     d28:	e592200c 	ldr	r2, [r2, #12]
     d2c:	e592200c 	ldr	r2, [r2, #12]
     d30:	e2422001 	sub	r2, r2, #1
     d34:	e5832004 	str	r2, [r3, #4]
     d38:	eaffffe0 	b	cc0 <oz8806_over_flow_prevent+0x214>
     d3c:	e59f0038 	ldr	r0, [pc, #56]	; d7c <oz8806_over_flow_prevent+0x2d0>
     d40:	ebfffffe 	bl	0 <printk>
     d44:	e5953000 	ldr	r3, [r5]
     d48:	e5933010 	ldr	r3, [r3, #16]
     d4c:	e5933000 	ldr	r3, [r3]
     d50:	eaffff7a 	b	b40 <oz8806_over_flow_prevent+0x94>
     d54:	e59f0024 	ldr	r0, [pc, #36]	; d80 <oz8806_over_flow_prevent+0x2d4>
     d58:	ebfffffe 	bl	0 <printk>
     d5c:	e5953000 	ldr	r3, [r5]
     d60:	e5933010 	ldr	r3, [r3, #16]
     d64:	e5933000 	ldr	r3, [r3]
     d68:	eaffffea 	b	d18 <oz8806_over_flow_prevent+0x26c>
     d6c:	00000000 	andeq	r0, r0, r0
     d70:	00000100 	andeq	r0, r0, r0, lsl #2
     d74:	0000012c 	andeq	r0, r0, ip, lsr #2
     d78:	00000154 	andeq	r0, r0, r4, asr r1
     d7c:	000000c4 	andeq	r0, r0, r4, asr #1
     d80:	000000e0 	andeq	r0, r0, r0, ror #1

00000d84 <bmu_read_data>:
     d84:	e3a01000 	mov	r1, #0
     d88:	e92d4030 	push	{r4, r5, lr}
     d8c:	e1a02001 	mov	r2, r1
     d90:	e24dd00c 	sub	sp, sp, #12
     d94:	e1a05000 	mov	r5, r0
     d98:	ebfffffe 	bl	0 <sys_open>
     d9c:	e2504000 	subs	r4, r0, #0
     da0:	ba000007 	blt	dc4 <bmu_read_data+0x40>
     da4:	e28d1004 	add	r1, sp, #4
     da8:	e3a02004 	mov	r2, #4
     dac:	ebfffffe 	bl	0 <sys_read>
     db0:	e1a00004 	mov	r0, r4
     db4:	ebfffffe 	bl	0 <sys_close>
     db8:	e59d0004 	ldr	r0, [sp, #4]
     dbc:	e28dd00c 	add	sp, sp, #12
     dc0:	e8bd8030 	pop	{r4, r5, pc}
     dc4:	e59f3028 	ldr	r3, [pc, #40]	; df4 <bmu_read_data+0x70>
     dc8:	e5933000 	ldr	r3, [r3]
     dcc:	e5933010 	ldr	r3, [r3, #16]
     dd0:	e5d3302c 	ldrb	r3, [r3, #44]	; 0x2c
     dd4:	e3530000 	cmp	r3, #0
     dd8:	03e00000 	mvneq	r0, #0
     ddc:	0afffff6 	beq	dbc <bmu_read_data+0x38>
     de0:	e1a01005 	mov	r1, r5
     de4:	e59f000c 	ldr	r0, [pc, #12]	; df8 <bmu_read_data+0x74>
     de8:	ebfffffe 	bl	0 <printk>
     dec:	e3e00000 	mvn	r0, #0
     df0:	eafffff1 	b	dbc <bmu_read_data+0x38>
     df4:	00000000 	andeq	r0, r0, r0
     df8:	0000017c 	andeq	r0, r0, ip, ror r1

00000dfc <bmu_write_data>:
     dfc:	e92d4070 	push	{r4, r5, r6, lr}
     e00:	e3a02000 	mov	r2, #0
     e04:	e24dd008 	sub	sp, sp, #8
     e08:	e1a05001 	mov	r5, r1
     e0c:	e3a01042 	mov	r1, #66	; 0x42
     e10:	e1a06000 	mov	r6, r0
     e14:	ebfffffe 	bl	0 <sys_open>
     e18:	e2504000 	subs	r4, r0, #0
     e1c:	ba000008 	blt	e44 <bmu_write_data+0x48>
     e20:	e28d1004 	add	r1, sp, #4
     e24:	e3a02004 	mov	r2, #4
     e28:	e58d5004 	str	r5, [sp, #4]
     e2c:	ebfffffe 	bl	0 <sys_write>
     e30:	e1a00004 	mov	r0, r4
     e34:	ebfffffe 	bl	0 <sys_close>
     e38:	e3a00000 	mov	r0, #0
     e3c:	e28dd008 	add	sp, sp, #8
     e40:	e8bd8070 	pop	{r4, r5, r6, pc}
     e44:	e59f3028 	ldr	r3, [pc, #40]	; e74 <bmu_write_data+0x78>
     e48:	e5933000 	ldr	r3, [r3]
     e4c:	e5933010 	ldr	r3, [r3, #16]
     e50:	e5d3302c 	ldrb	r3, [r3, #44]	; 0x2c
     e54:	e3530000 	cmp	r3, #0
     e58:	03e00000 	mvneq	r0, #0
     e5c:	0afffff6 	beq	e3c <bmu_write_data+0x40>
     e60:	e1a01006 	mov	r1, r6
     e64:	e59f000c 	ldr	r0, [pc, #12]	; e78 <bmu_write_data+0x7c>
     e68:	ebfffffe 	bl	0 <printk>
     e6c:	e3e00000 	mvn	r0, #0
     e70:	eafffff1 	b	e3c <bmu_write_data+0x40>
     e74:	00000000 	andeq	r0, r0, r0
     e78:	0000019c 	muleq	r0, ip, r1

00000e7c <discharge_end_process>:
     e7c:	e92d41f0 	push	{r4, r5, r6, r7, r8, lr}
     e80:	e59f41d4 	ldr	r4, [pc, #468]	; 105c <discharge_end_process+0x1e0>
     e84:	e594500c 	ldr	r5, [r4, #12]
     e88:	e5d53007 	ldrb	r3, [r5, #7]
     e8c:	e3530000 	cmp	r3, #0
     e90:	059f61c8 	ldreq	r6, [pc, #456]	; 1060 <discharge_end_process+0x1e4>
     e94:	1a000063 	bne	1028 <discharge_end_process+0x1ac>
     e98:	e5941000 	ldr	r1, [r4]
     e9c:	e3a0006e 	mov	r0, #110	; 0x6e
     ea0:	e308251f 	movw	r2, #34079	; 0x851f
     ea4:	e595300c 	ldr	r3, [r5, #12]
     ea8:	e34521eb 	movt	r2, #20971	; 0x51eb
     eac:	e59f71a8 	ldr	r7, [pc, #424]	; 105c <discharge_end_process+0x1e0>
     eb0:	e5911010 	ldr	r1, [r1, #16]
     eb4:	e5911018 	ldr	r1, [r1, #24]
     eb8:	e0000190 	mul	r0, r0, r1
     ebc:	e0c2c092 	smull	ip, r2, r2, r0
     ec0:	e1a00fc0 	asr	r0, r0, #31
     ec4:	e06022c2 	rsb	r2, r0, r2, asr #5
     ec8:	e1530002 	cmp	r3, r2
     ecc:	ca000046 	bgt	fec <discharge_end_process+0x170>
     ed0:	e3530000 	cmp	r3, #0
     ed4:	da000031 	ble	fa0 <discharge_end_process+0x124>
     ed8:	e0811101 	add	r1, r1, r1, lsl #2
     edc:	e308251f 	movw	r2, #34079	; 0x851f
     ee0:	e34521eb 	movt	r2, #20971	; 0x51eb
     ee4:	e1a01201 	lsl	r1, r1, #4
     ee8:	e0c20192 	smull	r0, r2, r2, r1
     eec:	e1a01fc1 	asr	r1, r1, #31
     ef0:	e06112c2 	rsb	r1, r1, r2, asr #5
     ef4:	e1510003 	cmp	r1, r3
     ef8:	ca000030 	bgt	fc0 <discharge_end_process+0x144>
     efc:	e5d53059 	ldrb	r3, [r5, #89]	; 0x59
     f00:	e3530000 	cmp	r3, #0
     f04:	0a000003 	beq	f18 <discharge_end_process+0x9c>
     f08:	e596000c 	ldr	r0, [r6, #12]
     f0c:	e3a01000 	mov	r1, #0
     f10:	ebffffb9 	bl	dfc <bmu_write_data>
     f14:	e594500c 	ldr	r5, [r4, #12]
     f18:	e595200c 	ldr	r2, [r5, #12]
     f1c:	e308351f 	movw	r3, #34079	; 0x851f
     f20:	e34531eb 	movt	r3, #20971	; 0x51eb
     f24:	e5941004 	ldr	r1, [r4, #4]
     f28:	e1e00002 	mvn	r0, r2
     f2c:	e1a00fa0 	lsr	r0, r0, #31
     f30:	e0c3c293 	smull	ip, r3, r3, r2
     f34:	e06032c3 	rsb	r3, r0, r3, asr #5
     f38:	e5813024 	str	r3, [r1, #36]	; 0x24
     f3c:	e5943004 	ldr	r3, [r4, #4]
     f40:	e5960010 	ldr	r0, [r6, #16]
     f44:	e5931024 	ldr	r1, [r3, #36]	; 0x24
     f48:	ebffffab 	bl	dfc <bmu_write_data>
     f4c:	e5943004 	ldr	r3, [r4, #4]
     f50:	e5930024 	ldr	r0, [r3, #36]	; 0x24
     f54:	ebfffe53 	bl	8a8 <afe_write_car>
     f58:	e5943004 	ldr	r3, [r4, #4]
     f5c:	e59f0100 	ldr	r0, [pc, #256]	; 1064 <discharge_end_process+0x1e8>
     f60:	e5932024 	ldr	r2, [r3, #36]	; 0x24
     f64:	e5832020 	str	r2, [r3, #32]
     f68:	ebfffffe 	bl	0 <printk>
     f6c:	e5941004 	ldr	r1, [r4, #4]
     f70:	e3a03000 	mov	r3, #0
     f74:	e3a02001 	mov	r2, #1
     f78:	e5813008 	str	r3, [r1, #8]
     f7c:	e594100c 	ldr	r1, [r4, #12]
     f80:	e5c12004 	strb	r2, [r1, #4]
     f84:	e594100c 	ldr	r1, [r4, #12]
     f88:	e5c13007 	strb	r3, [r1, #7]
     f8c:	e594100c 	ldr	r1, [r4, #12]
     f90:	e5c12006 	strb	r2, [r1, #6]
     f94:	e594200c 	ldr	r2, [r4, #12]
     f98:	e5823008 	str	r3, [r2, #8]
     f9c:	e8bd81f0 	pop	{r4, r5, r6, r7, r8, pc}
     fa0:	e5943000 	ldr	r3, [r4]
     fa4:	e3a00050 	mov	r0, #80	; 0x50
     fa8:	e3a01064 	mov	r1, #100	; 0x64
     fac:	e5933010 	ldr	r3, [r3, #16]
     fb0:	e5933018 	ldr	r3, [r3, #24]
     fb4:	e0000390 	mul	r0, r0, r3
     fb8:	ebfffffe 	bl	0 <__aeabi_idiv>
     fbc:	e1a01000 	mov	r1, r0
     fc0:	e585100c 	str	r1, [r5, #12]
     fc4:	e594300c 	ldr	r3, [r4, #12]
     fc8:	e5960008 	ldr	r0, [r6, #8]
     fcc:	e593100c 	ldr	r1, [r3, #12]
     fd0:	ebffff89 	bl	dfc <bmu_write_data>
     fd4:	e594300c 	ldr	r3, [r4, #12]
     fd8:	e59f0088 	ldr	r0, [pc, #136]	; 1068 <discharge_end_process+0x1ec>
     fdc:	e593100c 	ldr	r1, [r3, #12]
     fe0:	ebfffffe 	bl	0 <printk>
     fe4:	e594500c 	ldr	r5, [r4, #12]
     fe8:	eaffffc3 	b	efc <discharge_end_process+0x80>
     fec:	e585200c 	str	r2, [r5, #12]
     ff0:	e597300c 	ldr	r3, [r7, #12]
     ff4:	e5960008 	ldr	r0, [r6, #8]
     ff8:	e593100c 	ldr	r1, [r3, #12]
     ffc:	ebffff7e 	bl	dfc <bmu_write_data>
    1000:	e597300c 	ldr	r3, [r7, #12]
    1004:	e59f0060 	ldr	r0, [pc, #96]	; 106c <discharge_end_process+0x1f0>
    1008:	e593100c 	ldr	r1, [r3, #12]
    100c:	ebfffffe 	bl	0 <printk>
    1010:	e5973000 	ldr	r3, [r7]
    1014:	e597500c 	ldr	r5, [r7, #12]
    1018:	e5932010 	ldr	r2, [r3, #16]
    101c:	e595300c 	ldr	r3, [r5, #12]
    1020:	e5921018 	ldr	r1, [r2, #24]
    1024:	eaffffa9 	b	ed0 <discharge_end_process+0x54>
    1028:	e5953010 	ldr	r3, [r5, #16]
    102c:	e59f602c 	ldr	r6, [pc, #44]	; 1060 <discharge_end_process+0x1e4>
    1030:	e585300c 	str	r3, [r5, #12]
    1034:	e594300c 	ldr	r3, [r4, #12]
    1038:	e5960008 	ldr	r0, [r6, #8]
    103c:	e593100c 	ldr	r1, [r3, #12]
    1040:	ebffff6d 	bl	dfc <bmu_write_data>
    1044:	e594300c 	ldr	r3, [r4, #12]
    1048:	e59f0020 	ldr	r0, [pc, #32]	; 1070 <discharge_end_process+0x1f4>
    104c:	e593100c 	ldr	r1, [r3, #12]
    1050:	ebfffffe 	bl	0 <printk>
    1054:	e594500c 	ldr	r5, [r4, #12]
    1058:	eaffff8e 	b	e98 <discharge_end_process+0x1c>
	...
    1064:	00000220 	andeq	r0, r0, r0, lsr #4
    1068:	00000200 	andeq	r0, r0, r0, lsl #4
    106c:	000001e0 	andeq	r0, r0, r0, ror #3
    1070:	000001c0 	andeq	r0, r0, r0, asr #3

00001074 <check_shutdwon_voltage>:
    1074:	e92d4010 	push	{r4, lr}
    1078:	e59f4118 	ldr	r4, [pc, #280]	; 1198 <check_shutdwon_voltage+0x124>
    107c:	e5940004 	ldr	r0, [r4, #4]
    1080:	e280000c 	add	r0, r0, #12
    1084:	ebfffd13 	bl	4d8 <afe_read_cell_volt>
    1088:	e5943000 	ldr	r3, [r4]
    108c:	e5942004 	ldr	r2, [r4, #4]
    1090:	e5931010 	ldr	r1, [r3, #16]
    1094:	e592000c 	ldr	r0, [r2, #12]
    1098:	e5911024 	ldr	r1, [r1, #36]	; 0x24
    109c:	e2411064 	sub	r1, r1, #100	; 0x64
    10a0:	e1500001 	cmp	r0, r1
    10a4:	da000039 	ble	1190 <check_shutdwon_voltage+0x11c>
    10a8:	e5d41010 	ldrb	r1, [r4, #16]
    10ac:	e3510000 	cmp	r1, #0
    10b0:	08bd8010 	popeq	{r4, pc}
    10b4:	e5931004 	ldr	r1, [r3, #4]
    10b8:	e5922018 	ldr	r2, [r2, #24]
    10bc:	e5d30000 	ldrb	r0, [r3]
    10c0:	ebfffbce 	bl	0 <one_latitude_table>
    10c4:	e5943004 	ldr	r3, [r4, #4]
    10c8:	e5932008 	ldr	r2, [r3, #8]
    10cc:	e0600002 	rsb	r0, r0, r2
    10d0:	e3500005 	cmp	r0, #5
    10d4:	d8bd8010 	pople	{r4, pc}
    10d8:	e2422005 	sub	r2, r2, #5
    10dc:	e5832008 	str	r2, [r3, #8]
    10e0:	e5942004 	ldr	r2, [r4, #4]
    10e4:	e5921008 	ldr	r1, [r2, #8]
    10e8:	e3510000 	cmp	r1, #0
    10ec:	b3a03000 	movlt	r3, #0
    10f0:	b5823008 	strlt	r3, [r2, #8]
    10f4:	b5942004 	ldrlt	r2, [r4, #4]
    10f8:	e308351f 	movw	r3, #34079	; 0x851f
    10fc:	e594000c 	ldr	r0, [r4, #12]
    1100:	e34531eb 	movt	r3, #20971	; 0x51eb
    1104:	b5921008 	ldrlt	r1, [r2, #8]
    1108:	e590000c 	ldr	r0, [r0, #12]
    110c:	e0010190 	mul	r1, r0, r1
    1110:	e0c30193 	smull	r0, r3, r3, r1
    1114:	e1a01fc1 	asr	r1, r1, #31
    1118:	e06112c3 	rsb	r1, r1, r3, asr #5
    111c:	e5821024 	str	r1, [r2, #36]	; 0x24
    1120:	e594200c 	ldr	r2, [r4, #12]
    1124:	e5943004 	ldr	r3, [r4, #4]
    1128:	e5922000 	ldr	r2, [r2]
    112c:	e5930004 	ldr	r0, [r3, #4]
    1130:	e2422014 	sub	r2, r2, #20
    1134:	e1500002 	cmp	r0, r2
    1138:	c5832004 	strgt	r2, [r3, #4]
    113c:	c59f3054 	ldrgt	r3, [pc, #84]	; 1198 <check_shutdwon_voltage+0x124>
    1140:	c5933004 	ldrgt	r3, [r3, #4]
    1144:	c5930004 	ldrgt	r0, [r3, #4]
    1148:	ebfffdd6 	bl	8a8 <afe_write_car>
    114c:	e5943004 	ldr	r3, [r4, #4]
    1150:	e5932004 	ldr	r2, [r3, #4]
    1154:	e5832020 	str	r2, [r3, #32]
    1158:	e5942004 	ldr	r2, [r4, #4]
    115c:	e594300c 	ldr	r3, [r4, #12]
    1160:	e5922024 	ldr	r2, [r2, #36]	; 0x24
    1164:	e5832008 	str	r2, [r3, #8]
    1168:	e5942004 	ldr	r2, [r4, #4]
    116c:	e594300c 	ldr	r3, [r4, #12]
    1170:	e5922024 	ldr	r2, [r2, #36]	; 0x24
    1174:	e593100c 	ldr	r1, [r3, #12]
    1178:	e1510002 	cmp	r1, r2
    117c:	c0622001 	rsbgt	r2, r2, r1
    1180:	d3a02000 	movle	r2, #0
    1184:	c5832010 	strgt	r2, [r3, #16]
    1188:	d5832010 	strle	r2, [r3, #16]
    118c:	e8bd8010 	pop	{r4, pc}
    1190:	e8bd4010 	pop	{r4, lr}
    1194:	eaffff38 	b	e7c <discharge_end_process>
    1198:	00000000 	andeq	r0, r0, r0

0000119c <charge_end_process>:
    119c:	e92d41f0 	push	{r4, r5, r6, r7, r8, lr}
    11a0:	e59f41f0 	ldr	r4, [pc, #496]	; 1398 <charge_end_process+0x1fc>
    11a4:	e594500c 	ldr	r5, [r4, #12]
    11a8:	e5d53006 	ldrb	r3, [r5, #6]
    11ac:	e3530000 	cmp	r3, #0
    11b0:	059f61e4 	ldreq	r6, [pc, #484]	; 139c <charge_end_process+0x200>
    11b4:	1a000064 	bne	134c <charge_end_process+0x1b0>
    11b8:	e5943000 	ldr	r3, [r4]
    11bc:	e3a0006e 	mov	r0, #110	; 0x6e
    11c0:	e308151f 	movw	r1, #34079	; 0x851f
    11c4:	e595200c 	ldr	r2, [r5, #12]
    11c8:	e34511eb 	movt	r1, #20971	; 0x51eb
    11cc:	e59f71c4 	ldr	r7, [pc, #452]	; 1398 <charge_end_process+0x1fc>
    11d0:	e5933010 	ldr	r3, [r3, #16]
    11d4:	e5933018 	ldr	r3, [r3, #24]
    11d8:	e0000390 	mul	r0, r0, r3
    11dc:	e0c1c091 	smull	ip, r1, r1, r0
    11e0:	e1a00fc0 	asr	r0, r0, #31
    11e4:	e06012c1 	rsb	r1, r0, r1, asr #5
    11e8:	e1520001 	cmp	r2, r1
    11ec:	ca000047 	bgt	1310 <charge_end_process+0x174>
    11f0:	e3520000 	cmp	r2, #0
    11f4:	da00002f 	ble	12b8 <charge_end_process+0x11c>
    11f8:	e0830103 	add	r0, r3, r3, lsl #2
    11fc:	e308151f 	movw	r1, #34079	; 0x851f
    1200:	e34511eb 	movt	r1, #20971	; 0x51eb
    1204:	e1a00200 	lsl	r0, r0, #4
    1208:	e0c1e091 	smull	lr, r1, r1, r0
    120c:	e1a00fc0 	asr	r0, r0, #31
    1210:	e06002c1 	rsb	r0, r0, r1, asr #5
    1214:	e1500002 	cmp	r0, r2
    1218:	ca00002d 	bgt	12d4 <charge_end_process+0x138>
    121c:	e308151f 	movw	r1, #34079	; 0x851f
    1220:	e1a0cfc3 	asr	ip, r3, #31
    1224:	e34511eb 	movt	r1, #20971	; 0x51eb
    1228:	e5940004 	ldr	r0, [r4, #4]
    122c:	e0c3e391 	smull	lr, r3, r1, r3
    1230:	e06c32c3 	rsb	r3, ip, r3, asr #5
    1234:	e0832002 	add	r2, r3, r2
    1238:	e5802024 	str	r2, [r0, #36]	; 0x24
    123c:	e5943004 	ldr	r3, [r4, #4]
    1240:	e5960010 	ldr	r0, [r6, #16]
    1244:	e5931024 	ldr	r1, [r3, #36]	; 0x24
    1248:	ebfffeeb 	bl	dfc <bmu_write_data>
    124c:	e594300c 	ldr	r3, [r4, #12]
    1250:	e5d33059 	ldrb	r3, [r3, #89]	; 0x59
    1254:	e3530000 	cmp	r3, #0
    1258:	0a000003 	beq	126c <charge_end_process+0xd0>
    125c:	e59f3138 	ldr	r3, [pc, #312]	; 139c <charge_end_process+0x200>
    1260:	e3a01000 	mov	r1, #0
    1264:	e593000c 	ldr	r0, [r3, #12]
    1268:	ebfffee3 	bl	dfc <bmu_write_data>
    126c:	e59f012c 	ldr	r0, [pc, #300]	; 13a0 <charge_end_process+0x204>
    1270:	ebfffffe 	bl	0 <printk>
    1274:	e5941004 	ldr	r1, [r4, #4]
    1278:	e3a00064 	mov	r0, #100	; 0x64
    127c:	e3a02001 	mov	r2, #1
    1280:	e3a03000 	mov	r3, #0
    1284:	e5810008 	str	r0, [r1, #8]
    1288:	e594100c 	ldr	r1, [r4, #12]
    128c:	e5c12005 	strb	r2, [r1, #5]
    1290:	e594100c 	ldr	r1, [r4, #12]
    1294:	e5c42011 	strb	r2, [r4, #17]
    1298:	e5c43012 	strb	r3, [r4, #18]
    129c:	e5c13006 	strb	r3, [r1, #6]
    12a0:	e594100c 	ldr	r1, [r4, #12]
    12a4:	e5c12007 	strb	r2, [r1, #7]
    12a8:	e594200c 	ldr	r2, [r4, #12]
    12ac:	e5823010 	str	r3, [r2, #16]
    12b0:	e5c43013 	strb	r3, [r4, #19]
    12b4:	e8bd81f0 	pop	{r4, r5, r6, r7, r8, pc}
    12b8:	e5943000 	ldr	r3, [r4]
    12bc:	e3a00050 	mov	r0, #80	; 0x50
    12c0:	e3a01064 	mov	r1, #100	; 0x64
    12c4:	e5933010 	ldr	r3, [r3, #16]
    12c8:	e5933018 	ldr	r3, [r3, #24]
    12cc:	e0000390 	mul	r0, r0, r3
    12d0:	ebfffffe 	bl	0 <__aeabi_idiv>
    12d4:	e585000c 	str	r0, [r5, #12]
    12d8:	e594300c 	ldr	r3, [r4, #12]
    12dc:	e5960008 	ldr	r0, [r6, #8]
    12e0:	e593100c 	ldr	r1, [r3, #12]
    12e4:	ebfffec4 	bl	dfc <bmu_write_data>
    12e8:	e594300c 	ldr	r3, [r4, #12]
    12ec:	e59f00b0 	ldr	r0, [pc, #176]	; 13a4 <charge_end_process+0x208>
    12f0:	e593100c 	ldr	r1, [r3, #12]
    12f4:	ebfffffe 	bl	0 <printk>
    12f8:	e5943000 	ldr	r3, [r4]
    12fc:	e594200c 	ldr	r2, [r4, #12]
    1300:	e5933010 	ldr	r3, [r3, #16]
    1304:	e592200c 	ldr	r2, [r2, #12]
    1308:	e5933018 	ldr	r3, [r3, #24]
    130c:	eaffffc2 	b	121c <charge_end_process+0x80>
    1310:	e585100c 	str	r1, [r5, #12]
    1314:	e597300c 	ldr	r3, [r7, #12]
    1318:	e5960008 	ldr	r0, [r6, #8]
    131c:	e593100c 	ldr	r1, [r3, #12]
    1320:	ebfffeb5 	bl	dfc <bmu_write_data>
    1324:	e597300c 	ldr	r3, [r7, #12]
    1328:	e59f0078 	ldr	r0, [pc, #120]	; 13a8 <charge_end_process+0x20c>
    132c:	e593100c 	ldr	r1, [r3, #12]
    1330:	ebfffffe 	bl	0 <printk>
    1334:	e5973000 	ldr	r3, [r7]
    1338:	e597500c 	ldr	r5, [r7, #12]
    133c:	e5933010 	ldr	r3, [r3, #16]
    1340:	e595200c 	ldr	r2, [r5, #12]
    1344:	e5933018 	ldr	r3, [r3, #24]
    1348:	eaffffa8 	b	11f0 <charge_end_process+0x54>
    134c:	e5943000 	ldr	r3, [r4]
    1350:	e5942004 	ldr	r2, [r4, #4]
    1354:	e59f6040 	ldr	r6, [pc, #64]	; 139c <charge_end_process+0x200>
    1358:	e5933010 	ldr	r3, [r3, #16]
    135c:	e5922010 	ldr	r2, [r2, #16]
    1360:	e5933020 	ldr	r3, [r3, #32]
    1364:	e1520003 	cmp	r2, r3
    1368:	b5953008 	ldrlt	r3, [r5, #8]
    136c:	b585300c 	strlt	r3, [r5, #12]
    1370:	b594500c 	ldrlt	r5, [r4, #12]
    1374:	e5960008 	ldr	r0, [r6, #8]
    1378:	e595100c 	ldr	r1, [r5, #12]
    137c:	ebfffe9e 	bl	dfc <bmu_write_data>
    1380:	e594300c 	ldr	r3, [r4, #12]
    1384:	e59f0020 	ldr	r0, [pc, #32]	; 13ac <charge_end_process+0x210>
    1388:	e593100c 	ldr	r1, [r3, #12]
    138c:	ebfffffe 	bl	0 <printk>
    1390:	e594500c 	ldr	r5, [r4, #12]
    1394:	eaffff87 	b	11b8 <charge_end_process+0x1c>
	...
    13a0:	0000028c 	andeq	r0, r0, ip, lsl #5
    13a4:	00000270 	andeq	r0, r0, r0, ror r2
    13a8:	00000254 	andeq	r0, r0, r4, asr r2
    13ac:	00000238 	andeq	r0, r0, r8, lsr r2

000013b0 <afe_register_read_byte>:
    13b0:	e92d47f0 	push	{r4, r5, r6, r7, r8, r9, sl, lr}
    13b4:	e59f8084 	ldr	r8, [pc, #132]	; 1440 <afe_register_read_byte+0x90>
    13b8:	e1a07000 	mov	r7, r0
    13bc:	e1a0a001 	mov	sl, r1
    13c0:	e3a04000 	mov	r4, #0
    13c4:	e5983000 	ldr	r3, [r8]
    13c8:	e1a01007 	mov	r1, r7
    13cc:	e2844001 	add	r4, r4, #1
    13d0:	e59f5068 	ldr	r5, [pc, #104]	; 1440 <afe_register_read_byte+0x90>
    13d4:	e5930014 	ldr	r0, [r3, #20]
    13d8:	e6ef4074 	uxtb	r4, r4
    13dc:	ebfffffe 	bl	0 <i2c_smbus_read_byte_data>
    13e0:	e2506000 	subs	r6, r0, #0
    13e4:	aa00000f 	bge	1428 <afe_register_read_byte+0x78>
    13e8:	e3540008 	cmp	r4, #8
    13ec:	1afffff4 	bne	13c4 <afe_register_read_byte+0x14>
    13f0:	e5953004 	ldr	r3, [r5, #4]
    13f4:	e5932028 	ldr	r2, [r3, #40]	; 0x28
    13f8:	e2822001 	add	r2, r2, #1
    13fc:	e5832028 	str	r2, [r3, #40]	; 0x28
    1400:	e5953000 	ldr	r3, [r5]
    1404:	e5933010 	ldr	r3, [r3, #16]
    1408:	e5d3302c 	ldrb	r3, [r3, #44]	; 0x2c
    140c:	e3530000 	cmp	r3, #0
    1410:	1a000007 	bne	1434 <afe_register_read_byte+0x84>
    1414:	e1a01006 	mov	r1, r6
    1418:	e59f0024 	ldr	r0, [pc, #36]	; 1444 <afe_register_read_byte+0x94>
    141c:	ebfffffe 	bl	0 <printk>
    1420:	e1a00006 	mov	r0, r6
    1424:	e8bd87f0 	pop	{r4, r5, r6, r7, r8, r9, sl, pc}
    1428:	e5ca6000 	strb	r6, [sl]
    142c:	e1a00006 	mov	r0, r6
    1430:	e8bd87f0 	pop	{r4, r5, r6, r7, r8, r9, sl, pc}
    1434:	e59f000c 	ldr	r0, [pc, #12]	; 1448 <afe_register_read_byte+0x98>
    1438:	ebfffffe 	bl	0 <printk>
    143c:	eafffff4 	b	1414 <afe_register_read_byte+0x64>
    1440:	00000000 	andeq	r0, r0, r0
    1444:	00000020 	andeq	r0, r0, r0, lsr #32
    1448:	000002a0 	andeq	r0, r0, r0, lsr #5

0000144c <afe_register_write_byte>:
    144c:	e92d47f0 	push	{r4, r5, r6, r7, r8, r9, sl, lr}
    1450:	e59f7154 	ldr	r7, [pc, #340]	; 15ac <afe_register_write_byte+0x160>
    1454:	e1a05000 	mov	r5, r0
    1458:	e1a04001 	mov	r4, r1
    145c:	e3a06000 	mov	r6, #0
    1460:	e1a08007 	mov	r8, r7
    1464:	e5d73008 	ldrb	r3, [r7, #8]
    1468:	e3530000 	cmp	r3, #0
    146c:	0a000044 	beq	1584 <afe_register_write_byte+0x138>
    1470:	e3a03000 	mov	r3, #0
    1474:	e3a01080 	mov	r1, #128	; 0x80
    1478:	e1a02003 	mov	r2, r3
    147c:	e3120080 	tst	r2, #128	; 0x80
    1480:	e1a00082 	lsl	r0, r2, #1
    1484:	11a02000 	movne	r2, r0
    1488:	e2833001 	add	r3, r3, #1
    148c:	06ef2070 	uxtbeq	r2, r0
    1490:	16ef2072 	uxtbne	r2, r2
    1494:	12222007 	eorne	r2, r2, #7
    1498:	e311005e 	tst	r1, #94	; 0x5e
    149c:	12222007 	eorne	r2, r2, #7
    14a0:	e3530008 	cmp	r3, #8
    14a4:	e1a010a1 	lsr	r1, r1, #1
    14a8:	1afffff3 	bne	147c <afe_register_write_byte+0x30>
    14ac:	e3a01000 	mov	r1, #0
    14b0:	e3a03080 	mov	r3, #128	; 0x80
    14b4:	e3120080 	tst	r2, #128	; 0x80
    14b8:	e1a00082 	lsl	r0, r2, #1
    14bc:	11a02000 	movne	r2, r0
    14c0:	e2811001 	add	r1, r1, #1
    14c4:	06ef2070 	uxtbeq	r2, r0
    14c8:	16ef2072 	uxtbne	r2, r2
    14cc:	12222007 	eorne	r2, r2, #7
    14d0:	e1130005 	tst	r3, r5
    14d4:	12222007 	eorne	r2, r2, #7
    14d8:	e3510008 	cmp	r1, #8
    14dc:	e1a030a3 	lsr	r3, r3, #1
    14e0:	1afffff3 	bne	14b4 <afe_register_write_byte+0x68>
    14e4:	e3a01000 	mov	r1, #0
    14e8:	e3a03080 	mov	r3, #128	; 0x80
    14ec:	e3120080 	tst	r2, #128	; 0x80
    14f0:	e1a00082 	lsl	r0, r2, #1
    14f4:	11a02000 	movne	r2, r0
    14f8:	e2811001 	add	r1, r1, #1
    14fc:	06ef2070 	uxtbeq	r2, r0
    1500:	16ef2072 	uxtbne	r2, r2
    1504:	12222007 	eorne	r2, r2, #7
    1508:	e1130004 	tst	r3, r4
    150c:	12222007 	eorne	r2, r2, #7
    1510:	e3510008 	cmp	r1, #8
    1514:	e1a030a3 	lsr	r3, r3, #1
    1518:	1afffff3 	bne	14ec <afe_register_write_byte+0xa0>
    151c:	e5973000 	ldr	r3, [r7]
    1520:	e1842402 	orr	r2, r4, r2, lsl #8
    1524:	e1a01005 	mov	r1, r5
    1528:	e5930014 	ldr	r0, [r3, #20]
    152c:	ebfffffe 	bl	0 <i2c_smbus_write_word_data>
    1530:	e1a0a000 	mov	sl, r0
    1534:	e35a0000 	cmp	sl, #0
    1538:	aa00000f 	bge	157c <afe_register_write_byte+0x130>
    153c:	e2866001 	add	r6, r6, #1
    1540:	e6ef6076 	uxtb	r6, r6
    1544:	e3560008 	cmp	r6, #8
    1548:	1affffc5 	bne	1464 <afe_register_write_byte+0x18>
    154c:	e5973004 	ldr	r3, [r7, #4]
    1550:	e5932028 	ldr	r2, [r3, #40]	; 0x28
    1554:	e2822001 	add	r2, r2, #1
    1558:	e5832028 	str	r2, [r3, #40]	; 0x28
    155c:	e5973000 	ldr	r3, [r7]
    1560:	e5933010 	ldr	r3, [r3, #16]
    1564:	e5d3302c 	ldrb	r3, [r3, #44]	; 0x2c
    1568:	e3530000 	cmp	r3, #0
    156c:	1a00000b 	bne	15a0 <afe_register_write_byte+0x154>
    1570:	e59f0038 	ldr	r0, [pc, #56]	; 15b0 <afe_register_write_byte+0x164>
    1574:	e1a0100a 	mov	r1, sl
    1578:	ebfffffe 	bl	0 <printk>
    157c:	e1a0000a 	mov	r0, sl
    1580:	e8bd87f0 	pop	{r4, r5, r6, r7, r8, r9, sl, pc}
    1584:	e5983000 	ldr	r3, [r8]
    1588:	e1a01005 	mov	r1, r5
    158c:	e1a02004 	mov	r2, r4
    1590:	e5930014 	ldr	r0, [r3, #20]
    1594:	ebfffffe 	bl	0 <i2c_smbus_write_byte_data>
    1598:	e1a0a000 	mov	sl, r0
    159c:	eaffffe4 	b	1534 <afe_register_write_byte+0xe8>
    15a0:	e59f000c 	ldr	r0, [pc, #12]	; 15b4 <afe_register_write_byte+0x168>
    15a4:	ebfffffe 	bl	0 <printk>
    15a8:	eafffff0 	b	1570 <afe_register_write_byte+0x124>
    15ac:	00000000 	andeq	r0, r0, r0
    15b0:	00000020 	andeq	r0, r0, r0, lsr #32
    15b4:	000002c0 	andeq	r0, r0, r0, asr #5

000015b8 <bmu_wake_up_chip>:
    15b8:	e92d41f0 	push	{r4, r5, r6, r7, r8, lr}
    15bc:	e59f4870 	ldr	r4, [pc, #2160]	; 1e34 <bmu_wake_up_chip+0x87c>
    15c0:	e24dd010 	sub	sp, sp, #16
    15c4:	e59f086c 	ldr	r0, [pc, #2156]	; 1e38 <bmu_wake_up_chip+0x880>
    15c8:	e5943004 	ldr	r3, [r4, #4]
    15cc:	e5931010 	ldr	r1, [r3, #16]
    15d0:	ebfffffe 	bl	0 <printk>
    15d4:	e5942004 	ldr	r2, [r4, #4]
    15d8:	e594300c 	ldr	r3, [r4, #12]
    15dc:	e3a00009 	mov	r0, #9
    15e0:	e28d100f 	add	r1, sp, #15
    15e4:	e5922010 	ldr	r2, [r2, #16]
    15e8:	e5933048 	ldr	r3, [r3, #72]	; 0x48
    15ec:	e1520003 	cmp	r2, r3
    15f0:	b3a03000 	movlt	r3, #0
    15f4:	a3a03001 	movge	r3, #1
    15f8:	b5c43014 	strblt	r3, [r4, #20]
    15fc:	b3a05001 	movlt	r5, #1
    1600:	a5c43014 	strbge	r3, [r4, #20]
    1604:	e3a03001 	mov	r3, #1
    1608:	e5c43015 	strb	r3, [r4, #21]
    160c:	a3a05000 	movge	r5, #0
    1610:	ebffff66 	bl	13b0 <afe_register_read_byte>
    1614:	e5dd200f 	ldrb	r2, [sp, #15]
    1618:	e7e03352 	ubfx	r3, r2, #6, #1
    161c:	e1933fa0 	orrs	r3, r3, r0, lsr #31
    1620:	1a00016e 	bne	1be0 <bmu_wake_up_chip+0x628>
    1624:	e5940004 	ldr	r0, [r4, #4]
    1628:	e59f6804 	ldr	r6, [pc, #2052]	; 1e34 <bmu_wake_up_chip+0x87c>
    162c:	e2800010 	add	r0, r0, #16
    1630:	ebfffb6e 	bl	3f0 <afe_read_current>
    1634:	e5940004 	ldr	r0, [r4, #4]
    1638:	e280000c 	add	r0, r0, #12
    163c:	ebfffba5 	bl	4d8 <afe_read_cell_volt>
    1640:	e5943000 	ldr	r3, [r4]
    1644:	e5940004 	ldr	r0, [r4, #4]
    1648:	e5933010 	ldr	r3, [r3, #16]
    164c:	e590200c 	ldr	r2, [r0, #12]
    1650:	e5933024 	ldr	r3, [r3, #36]	; 0x24
    1654:	e2433f4b 	sub	r3, r3, #300	; 0x12c
    1658:	e1520003 	cmp	r2, r3
    165c:	da0000bd 	ble	1958 <bmu_wake_up_chip+0x3a0>
    1660:	e5903008 	ldr	r3, [r0, #8]
    1664:	e3530063 	cmp	r3, #99	; 0x63
    1668:	da00001b 	ble	16dc <bmu_wake_up_chip+0x124>
    166c:	e3a07064 	mov	r7, #100	; 0x64
    1670:	e5807008 	str	r7, [r0, #8]
    1674:	e5962000 	ldr	r2, [r6]
    1678:	e308351f 	movw	r3, #34079	; 0x851f
    167c:	e34531eb 	movt	r3, #20971	; 0x51eb
    1680:	e596100c 	ldr	r1, [r6, #12]
    1684:	e5960004 	ldr	r0, [r6, #4]
    1688:	e5922010 	ldr	r2, [r2, #16]
    168c:	e591c00c 	ldr	ip, [r1, #12]
    1690:	e5901024 	ldr	r1, [r0, #36]	; 0x24
    1694:	e5922018 	ldr	r2, [r2, #24]
    1698:	e0c3e293 	smull	lr, r3, r3, r2
    169c:	e1a02fc2 	asr	r2, r2, #31
    16a0:	e06232c3 	rsb	r3, r2, r3, asr #5
    16a4:	e083300c 	add	r3, r3, ip
    16a8:	e1510003 	cmp	r1, r3
    16ac:	ca00013d 	bgt	1ba8 <bmu_wake_up_chip+0x5f0>
    16b0:	e3550000 	cmp	r5, #0
    16b4:	15940004 	ldrne	r0, [r4, #4]
    16b8:	1a000007 	bne	16dc <bmu_wake_up_chip+0x124>
    16bc:	e5943000 	ldr	r3, [r4]
    16c0:	e590200c 	ldr	r2, [r0, #12]
    16c4:	e59f6768 	ldr	r6, [pc, #1896]	; 1e34 <bmu_wake_up_chip+0x87c>
    16c8:	e5933010 	ldr	r3, [r3, #16]
    16cc:	e593301c 	ldr	r3, [r3, #28]
    16d0:	e2433096 	sub	r3, r3, #150	; 0x96
    16d4:	e1520003 	cmp	r2, r3
    16d8:	aa00008f 	bge	191c <bmu_wake_up_chip+0x364>
    16dc:	e2800010 	add	r0, r0, #16
    16e0:	e59f674c 	ldr	r6, [pc, #1868]	; 1e34 <bmu_wake_up_chip+0x87c>
    16e4:	ebfffb41 	bl	3f0 <afe_read_current>
    16e8:	e5940004 	ldr	r0, [r4, #4]
    16ec:	e2800010 	add	r0, r0, #16
    16f0:	ebfffb3e 	bl	3f0 <afe_read_current>
    16f4:	e5942004 	ldr	r2, [r4, #4]
    16f8:	e59f373c 	ldr	r3, [pc, #1852]	; 1e3c <bmu_wake_up_chip+0x884>
    16fc:	e59f073c 	ldr	r0, [pc, #1852]	; 1e40 <bmu_wake_up_chip+0x888>
    1700:	e592e00c 	ldr	lr, [r2, #12]
    1704:	e5d3c000 	ldrb	ip, [r3]
    1708:	e5921024 	ldr	r1, [r2, #36]	; 0x24
    170c:	e5923010 	ldr	r3, [r2, #16]
    1710:	e00c0c9e 	mul	ip, lr, ip
    1714:	e5922004 	ldr	r2, [r2, #4]
    1718:	e58dc004 	str	ip, [sp, #4]
    171c:	e58dc000 	str	ip, [sp]
    1720:	ebfffffe 	bl	0 <printk>
    1724:	e5940004 	ldr	r0, [r4, #4]
    1728:	e2800004 	add	r0, r0, #4
    172c:	ebfffb00 	bl	334 <afe_read_car>
    1730:	e3500000 	cmp	r0, #0
    1734:	aa000007 	bge	1758 <bmu_wake_up_chip+0x1a0>
    1738:	e5960004 	ldr	r0, [r6, #4]
    173c:	e2800004 	add	r0, r0, #4
    1740:	ebfffafb 	bl	334 <afe_read_car>
    1744:	e3500000 	cmp	r0, #0
    1748:	aa000002 	bge	1758 <bmu_wake_up_chip+0x1a0>
    174c:	e5960004 	ldr	r0, [r6, #4]
    1750:	e2800004 	add	r0, r0, #4
    1754:	ebfffaf6 	bl	334 <afe_read_car>
    1758:	e5942004 	ldr	r2, [r4, #4]
    175c:	e59f66d0 	ldr	r6, [pc, #1744]	; 1e34 <bmu_wake_up_chip+0x87c>
    1760:	e5923004 	ldr	r3, [r2, #4]
    1764:	e3530000 	cmp	r3, #0
    1768:	ba00007c 	blt	1960 <bmu_wake_up_chip+0x3a8>
    176c:	e5927020 	ldr	r7, [r2, #32]
    1770:	e1a02003 	mov	r2, r3
    1774:	e59f06c8 	ldr	r0, [pc, #1736]	; 1e44 <bmu_wake_up_chip+0x88c>
    1778:	e1a01007 	mov	r1, r7
    177c:	e0677003 	rsb	r7, r7, r3
    1780:	ebfffffe 	bl	0 <printk>
    1784:	e3550000 	cmp	r5, #0
    1788:	0a00004d 	beq	18c4 <bmu_wake_up_chip+0x30c>
    178c:	e5963004 	ldr	r3, [r6, #4]
    1790:	e5932020 	ldr	r2, [r3, #32]
    1794:	e5933004 	ldr	r3, [r3, #4]
    1798:	e1530002 	cmp	r3, r2
    179c:	ca0001a0 	bgt	1e24 <bmu_wake_up_chip+0x86c>
    17a0:	e59f06a0 	ldr	r0, [pc, #1696]	; 1e48 <bmu_wake_up_chip+0x890>
    17a4:	e3a08000 	mov	r8, #0
    17a8:	e5961018 	ldr	r1, [r6, #24]
    17ac:	ebfffffe 	bl	0 <printk>
    17b0:	e5963004 	ldr	r3, [r6, #4]
    17b4:	e5932024 	ldr	r2, [r3, #36]	; 0x24
    17b8:	e0822007 	add	r2, r2, r7
    17bc:	e5832024 	str	r2, [r3, #36]	; 0x24
    17c0:	e5940000 	ldr	r0, [r4]
    17c4:	e308251f 	movw	r2, #34079	; 0x851f
    17c8:	e34521eb 	movt	r2, #20971	; 0x51eb
    17cc:	e594300c 	ldr	r3, [r4, #12]
    17d0:	e5941004 	ldr	r1, [r4, #4]
    17d4:	e5900010 	ldr	r0, [r0, #16]
    17d8:	e593c00c 	ldr	ip, [r3, #12]
    17dc:	e5911024 	ldr	r1, [r1, #36]	; 0x24
    17e0:	e5900018 	ldr	r0, [r0, #24]
    17e4:	e59f5648 	ldr	r5, [pc, #1608]	; 1e34 <bmu_wake_up_chip+0x87c>
    17e8:	e0c2e092 	smull	lr, r2, r2, r0
    17ec:	e1a00fc0 	asr	r0, r0, #31
    17f0:	e06022c2 	rsb	r2, r0, r2, asr #5
    17f4:	e082200c 	add	r2, r2, ip
    17f8:	e1510002 	cmp	r1, r2
    17fc:	ca000144 	bgt	1d14 <bmu_wake_up_chip+0x75c>
    1800:	e5932008 	ldr	r2, [r3, #8]
    1804:	e0822007 	add	r2, r2, r7
    1808:	e5832008 	str	r2, [r3, #8]
    180c:	e594300c 	ldr	r3, [r4, #12]
    1810:	e5932010 	ldr	r2, [r3, #16]
    1814:	e0677002 	rsb	r7, r7, r2
    1818:	e5837010 	str	r7, [r3, #16]
    181c:	e594300c 	ldr	r3, [r4, #12]
    1820:	e5932008 	ldr	r2, [r3, #8]
    1824:	e3520000 	cmp	r2, #0
    1828:	b3a02000 	movlt	r2, #0
    182c:	b5832008 	strlt	r2, [r3, #8]
    1830:	b59f35fc 	ldrlt	r3, [pc, #1532]	; 1e34 <bmu_wake_up_chip+0x87c>
    1834:	b593300c 	ldrlt	r3, [r3, #12]
    1838:	e5932010 	ldr	r2, [r3, #16]
    183c:	e3520000 	cmp	r2, #0
    1840:	b3a02000 	movlt	r2, #0
    1844:	b5832010 	strlt	r2, [r3, #16]
    1848:	e5943000 	ldr	r3, [r4]
    184c:	e5933010 	ldr	r3, [r3, #16]
    1850:	e5d3302c 	ldrb	r3, [r3, #44]	; 0x2c
    1854:	e3530000 	cmp	r3, #0
    1858:	1a00015f 	bne	1ddc <bmu_wake_up_chip+0x824>
    185c:	e5943004 	ldr	r3, [r4, #4]
    1860:	e3a06064 	mov	r6, #100	; 0x64
    1864:	e59f75c8 	ldr	r7, [pc, #1480]	; 1e34 <bmu_wake_up_chip+0x87c>
    1868:	e5932004 	ldr	r2, [r3, #4]
    186c:	e5832020 	str	r2, [r3, #32]
    1870:	e5943004 	ldr	r3, [r4, #4]
    1874:	e5932024 	ldr	r2, [r3, #36]	; 0x24
    1878:	e0020296 	mul	r2, r6, r2
    187c:	e5832008 	str	r2, [r3, #8]
    1880:	e594300c 	ldr	r3, [r4, #12]
    1884:	e5945004 	ldr	r5, [r4, #4]
    1888:	e593100c 	ldr	r1, [r3, #12]
    188c:	e5950008 	ldr	r0, [r5, #8]
    1890:	ebfffffe 	bl	0 <__aeabi_idiv>
    1894:	e5850008 	str	r0, [r5, #8]
    1898:	e5940004 	ldr	r0, [r4, #4]
    189c:	e5903008 	ldr	r3, [r0, #8]
    18a0:	e3530063 	cmp	r3, #99	; 0x63
    18a4:	d3a08000 	movle	r8, #0
    18a8:	c2088001 	andgt	r8, r8, #1
    18ac:	e3580000 	cmp	r8, #0
    18b0:	1a0000d7 	bne	1c14 <bmu_wake_up_chip+0x65c>
    18b4:	e3530000 	cmp	r3, #0
    18b8:	da000127 	ble	1d5c <bmu_wake_up_chip+0x7a4>
    18bc:	e28dd010 	add	sp, sp, #16
    18c0:	e8bd81f0 	pop	{r4, r5, r6, r7, r8, pc}
    18c4:	e5963004 	ldr	r3, [r6, #4]
    18c8:	e5932020 	ldr	r2, [r3, #32]
    18cc:	e5933004 	ldr	r3, [r3, #4]
    18d0:	e1530002 	cmp	r3, r2
    18d4:	ba000060 	blt	1a5c <bmu_wake_up_chip+0x4a4>
    18d8:	e3570000 	cmp	r7, #0
    18dc:	da00014c 	ble	1e14 <bmu_wake_up_chip+0x85c>
    18e0:	e5961018 	ldr	r1, [r6, #24]
    18e4:	e59f055c 	ldr	r0, [pc, #1372]	; 1e48 <bmu_wake_up_chip+0x890>
    18e8:	e0871001 	add	r1, r7, r1
    18ec:	e5861018 	str	r1, [r6, #24]
    18f0:	ebfffffe 	bl	0 <printk>
    18f4:	e5941018 	ldr	r1, [r4, #24]
    18f8:	e59f3534 	ldr	r3, [pc, #1332]	; 1e34 <bmu_wake_up_chip+0x87c>
    18fc:	e3510018 	cmp	r1, #24
    1900:	8a000090 	bhi	1b48 <bmu_wake_up_chip+0x590>
    1904:	e5933004 	ldr	r3, [r3, #4]
    1908:	e3a08001 	mov	r8, #1
    190c:	e5932024 	ldr	r2, [r3, #36]	; 0x24
    1910:	e0822007 	add	r2, r2, r7
    1914:	e5832024 	str	r2, [r3, #36]	; 0x24
    1918:	eaffffa8 	b	17c0 <bmu_wake_up_chip+0x208>
    191c:	e2800004 	add	r0, r0, #4
    1920:	ebfffa83 	bl	334 <afe_read_car>
    1924:	e5963004 	ldr	r3, [r6, #4]
    1928:	e59f051c 	ldr	r0, [pc, #1308]	; 1e4c <bmu_wake_up_chip+0x894>
    192c:	e5931004 	ldr	r1, [r3, #4]
    1930:	ebfffffe 	bl	0 <printk>
    1934:	e5963004 	ldr	r3, [r6, #4]
    1938:	e5932004 	ldr	r2, [r3, #4]
    193c:	e3520000 	cmp	r2, #0
    1940:	c5832020 	strgt	r2, [r3, #32]
    1944:	caffffdc 	bgt	18bc <bmu_wake_up_chip+0x304>
    1948:	ebfffc57 	bl	aac <oz8806_over_flow_prevent>
    194c:	eaffffda 	b	18bc <bmu_wake_up_chip+0x304>
    1950:	e59f04f8 	ldr	r0, [pc, #1272]	; 1e50 <bmu_wake_up_chip+0x898>
    1954:	ebfffffe 	bl	0 <printk>
    1958:	ebfffd47 	bl	e7c <discharge_end_process>
    195c:	eaffffd6 	b	18bc <bmu_wake_up_chip+0x304>
    1960:	e1a01003 	mov	r1, r3
    1964:	e59f04e8 	ldr	r0, [pc, #1256]	; 1e54 <bmu_wake_up_chip+0x89c>
    1968:	ebfffffe 	bl	0 <printk>
    196c:	ebfffc4e 	bl	aac <oz8806_over_flow_prevent>
    1970:	e596200c 	ldr	r2, [r6, #12]
    1974:	e3a03000 	mov	r3, #0
    1978:	e1550003 	cmp	r5, r3
    197c:	e5c23006 	strb	r3, [r2, #6]
    1980:	e596200c 	ldr	r2, [r6, #12]
    1984:	e5c23007 	strb	r3, [r2, #7]
    1988:	0a000037 	beq	1a6c <bmu_wake_up_chip+0x4b4>
    198c:	ebfffdb8 	bl	1074 <check_shutdwon_voltage>
    1990:	e5963000 	ldr	r3, [r6]
    1994:	e5962004 	ldr	r2, [r6, #4]
    1998:	e5931004 	ldr	r1, [r3, #4]
    199c:	e592200c 	ldr	r2, [r2, #12]
    19a0:	e5d30000 	ldrb	r0, [r3]
    19a4:	ebfff995 	bl	0 <one_latitude_table>
    19a8:	e5963004 	ldr	r3, [r6, #4]
    19ac:	e5932024 	ldr	r2, [r3, #36]	; 0x24
    19b0:	e1500002 	cmp	r0, r2
    19b4:	aa00000f 	bge	19f8 <bmu_wake_up_chip+0x440>
    19b8:	e5830024 	str	r0, [r3, #36]	; 0x24
    19bc:	e3a01064 	mov	r1, #100	; 0x64
    19c0:	e5963004 	ldr	r3, [r6, #4]
    19c4:	e5932004 	ldr	r2, [r3, #4]
    19c8:	e5832020 	str	r2, [r3, #32]
    19cc:	e5963004 	ldr	r3, [r6, #4]
    19d0:	e5932024 	ldr	r2, [r3, #36]	; 0x24
    19d4:	e0020291 	mul	r2, r1, r2
    19d8:	e5832008 	str	r2, [r3, #8]
    19dc:	e596300c 	ldr	r3, [r6, #12]
    19e0:	e5965004 	ldr	r5, [r6, #4]
    19e4:	e593100c 	ldr	r1, [r3, #12]
    19e8:	e5950008 	ldr	r0, [r5, #8]
    19ec:	ebfffffe 	bl	0 <__aeabi_idiv>
    19f0:	e5850008 	str	r0, [r5, #8]
    19f4:	e5963004 	ldr	r3, [r6, #4]
    19f8:	e5932008 	ldr	r2, [r3, #8]
    19fc:	e3520000 	cmp	r2, #0
    1a00:	caffffad 	bgt	18bc <bmu_wake_up_chip+0x304>
    1a04:	e5941000 	ldr	r1, [r4]
    1a08:	e593000c 	ldr	r0, [r3, #12]
    1a0c:	e59f2420 	ldr	r2, [pc, #1056]	; 1e34 <bmu_wake_up_chip+0x87c>
    1a10:	e5911010 	ldr	r1, [r1, #16]
    1a14:	e5911024 	ldr	r1, [r1, #36]	; 0x24
    1a18:	e1500001 	cmp	r0, r1
    1a1c:	daffffcd 	ble	1958 <bmu_wake_up_chip+0x3a0>
    1a20:	e3a01001 	mov	r1, #1
    1a24:	e5831008 	str	r1, [r3, #8]
    1a28:	e592100c 	ldr	r1, [r2, #12]
    1a2c:	e308351f 	movw	r3, #34079	; 0x851f
    1a30:	e34531eb 	movt	r3, #20971	; 0x51eb
    1a34:	e5920004 	ldr	r0, [r2, #4]
    1a38:	e591100c 	ldr	r1, [r1, #12]
    1a3c:	e0c3c193 	smull	ip, r3, r3, r1
    1a40:	e1a01fc1 	asr	r1, r1, #31
    1a44:	e06132c3 	rsb	r3, r1, r3, asr #5
    1a48:	e5803024 	str	r3, [r0, #36]	; 0x24
    1a4c:	e592300c 	ldr	r3, [r2, #12]
    1a50:	e3a02000 	mov	r2, #0
    1a54:	e5c32004 	strb	r2, [r3, #4]
    1a58:	eaffff97 	b	18bc <bmu_wake_up_chip+0x304>
    1a5c:	e59f03f4 	ldr	r0, [pc, #1012]	; 1e58 <bmu_wake_up_chip+0x8a0>
    1a60:	e3a08001 	mov	r8, #1
    1a64:	ebfffffe 	bl	0 <printk>
    1a68:	eaffff6b 	b	181c <bmu_wake_up_chip+0x264>
    1a6c:	e3a00ffa 	mov	r0, #1000	; 0x3e8
    1a70:	ebfffffe 	bl	0 <msleep>
    1a74:	e5960004 	ldr	r0, [r6, #4]
    1a78:	e2800010 	add	r0, r0, #16
    1a7c:	ebfffa5b 	bl	3f0 <afe_read_current>
    1a80:	e5963000 	ldr	r3, [r6]
    1a84:	e5962004 	ldr	r2, [r6, #4]
    1a88:	e5930010 	ldr	r0, [r3, #16]
    1a8c:	e5921010 	ldr	r1, [r2, #16]
    1a90:	e590c020 	ldr	ip, [r0, #32]
    1a94:	e151000c 	cmp	r1, ip
    1a98:	ca000003 	bgt	1aac <bmu_wake_up_chip+0x4f4>
    1a9c:	e596c00c 	ldr	ip, [r6, #12]
    1aa0:	e59cc048 	ldr	ip, [ip, #72]	; 0x48
    1aa4:	e151000c 	cmp	r1, ip
    1aa8:	aa000037 	bge	1b8c <bmu_wake_up_chip+0x5d4>
    1aac:	e592200c 	ldr	r2, [r2, #12]
    1ab0:	e5931004 	ldr	r1, [r3, #4]
    1ab4:	e5d30000 	ldrb	r0, [r3]
    1ab8:	ebfff950 	bl	0 <one_latitude_table>
    1abc:	e5943004 	ldr	r3, [r4, #4]
    1ac0:	e59f536c 	ldr	r5, [pc, #876]	; 1e34 <bmu_wake_up_chip+0x87c>
    1ac4:	e5932024 	ldr	r2, [r3, #36]	; 0x24
    1ac8:	e1500002 	cmp	r0, r2
    1acc:	da00000f 	ble	1b10 <bmu_wake_up_chip+0x558>
    1ad0:	e5830024 	str	r0, [r3, #36]	; 0x24
    1ad4:	e3a01064 	mov	r1, #100	; 0x64
    1ad8:	e5953004 	ldr	r3, [r5, #4]
    1adc:	e5932004 	ldr	r2, [r3, #4]
    1ae0:	e5832020 	str	r2, [r3, #32]
    1ae4:	e5953004 	ldr	r3, [r5, #4]
    1ae8:	e5932024 	ldr	r2, [r3, #36]	; 0x24
    1aec:	e0020291 	mul	r2, r1, r2
    1af0:	e5832008 	str	r2, [r3, #8]
    1af4:	e595300c 	ldr	r3, [r5, #12]
    1af8:	e5956004 	ldr	r6, [r5, #4]
    1afc:	e593100c 	ldr	r1, [r3, #12]
    1b00:	e5960008 	ldr	r0, [r6, #8]
    1b04:	ebfffffe 	bl	0 <__aeabi_idiv>
    1b08:	e5860008 	str	r0, [r6, #8]
    1b0c:	e5953004 	ldr	r3, [r5, #4]
    1b10:	e5932008 	ldr	r2, [r3, #8]
    1b14:	e3520063 	cmp	r2, #99	; 0x63
    1b18:	daffff67 	ble	18bc <bmu_wake_up_chip+0x304>
    1b1c:	e3a02063 	mov	r2, #99	; 0x63
    1b20:	e5832008 	str	r2, [r3, #8]
    1b24:	e594200c 	ldr	r2, [r4, #12]
    1b28:	e5943004 	ldr	r3, [r4, #4]
    1b2c:	e592200c 	ldr	r2, [r2, #12]
    1b30:	e2422001 	sub	r2, r2, #1
    1b34:	e5832024 	str	r2, [r3, #36]	; 0x24
    1b38:	e594300c 	ldr	r3, [r4, #12]
    1b3c:	e3a02000 	mov	r2, #0
    1b40:	e5c32004 	strb	r2, [r3, #4]
    1b44:	eaffff5c 	b	18bc <bmu_wake_up_chip+0x304>
    1b48:	e308251f 	movw	r2, #34079	; 0x851f
    1b4c:	e5930004 	ldr	r0, [r3, #4]
    1b50:	e34521eb 	movt	r2, #20971	; 0x51eb
    1b54:	e3a08001 	mov	r8, #1
    1b58:	e081e192 	umull	lr, r1, r2, r1
    1b5c:	e590c024 	ldr	ip, [r0, #36]	; 0x24
    1b60:	e04711a1 	sub	r1, r7, r1, lsr #3
    1b64:	e08c1001 	add	r1, ip, r1
    1b68:	e5801024 	str	r1, [r0, #36]	; 0x24
    1b6c:	e5931018 	ldr	r1, [r3, #24]
    1b70:	e0820192 	umull	r0, r2, r2, r1
    1b74:	e1a021a2 	lsr	r2, r2, #3
    1b78:	e0822102 	add	r2, r2, r2, lsl #2
    1b7c:	e0822102 	add	r2, r2, r2, lsl #2
    1b80:	e0621001 	rsb	r1, r2, r1
    1b84:	e5831018 	str	r1, [r3, #24]
    1b88:	eaffff0c 	b	17c0 <bmu_wake_up_chip+0x208>
    1b8c:	e590101c 	ldr	r1, [r0, #28]
    1b90:	e592200c 	ldr	r2, [r2, #12]
    1b94:	e2411096 	sub	r1, r1, #150	; 0x96
    1b98:	e1520001 	cmp	r2, r1
    1b9c:	baffffc3 	blt	1ab0 <bmu_wake_up_chip+0x4f8>
    1ba0:	ebfffd7d 	bl	119c <charge_end_process>
    1ba4:	eaffff44 	b	18bc <bmu_wake_up_chip+0x304>
    1ba8:	e59f02ac 	ldr	r0, [pc, #684]	; 1e5c <bmu_wake_up_chip+0x8a4>
    1bac:	ebfffffe 	bl	0 <printk>
    1bb0:	e5963000 	ldr	r3, [r6]
    1bb4:	e1a01007 	mov	r1, r7
    1bb8:	e5967004 	ldr	r7, [r6, #4]
    1bbc:	e5933010 	ldr	r3, [r3, #16]
    1bc0:	e5930018 	ldr	r0, [r3, #24]
    1bc4:	ebfffffe 	bl	0 <__aeabi_idiv>
    1bc8:	e596300c 	ldr	r3, [r6, #12]
    1bcc:	e593300c 	ldr	r3, [r3, #12]
    1bd0:	e0803003 	add	r3, r0, r3
    1bd4:	e5873024 	str	r3, [r7, #36]	; 0x24
    1bd8:	e5960004 	ldr	r0, [r6, #4]
    1bdc:	eafffeb3 	b	16b0 <bmu_wake_up_chip+0xf8>
    1be0:	e1a01000 	mov	r1, r0
    1be4:	e59f0274 	ldr	r0, [pc, #628]	; 1e60 <bmu_wake_up_chip+0x8a8>
    1be8:	ebfffffe 	bl	0 <printk>
    1bec:	e59f3248 	ldr	r3, [pc, #584]	; 1e3c <bmu_wake_up_chip+0x884>
    1bf0:	e5d33000 	ldrb	r3, [r3]
    1bf4:	e3530001 	cmp	r3, #1
    1bf8:	9a000053 	bls	1d4c <bmu_wake_up_chip+0x794>
    1bfc:	e3a0102c 	mov	r1, #44	; 0x2c
    1c00:	e3a00009 	mov	r0, #9
    1c04:	ebfffe10 	bl	144c <afe_register_write_byte>
    1c08:	e59f0254 	ldr	r0, [pc, #596]	; 1e64 <bmu_wake_up_chip+0x8ac>
    1c0c:	ebfffffe 	bl	0 <printk>
    1c10:	eafffe83 	b	1624 <bmu_wake_up_chip+0x6c>
    1c14:	e2800010 	add	r0, r0, #16
    1c18:	ebfff9f4 	bl	3f0 <afe_read_current>
    1c1c:	e5973004 	ldr	r3, [r7, #4]
    1c20:	e59f0240 	ldr	r0, [pc, #576]	; 1e68 <bmu_wake_up_chip+0x8b0>
    1c24:	e5931010 	ldr	r1, [r3, #16]
    1c28:	ebfffffe 	bl	0 <printk>
    1c2c:	e3a00ffa 	mov	r0, #1000	; 0x3e8
    1c30:	ebfffffe 	bl	0 <msleep>
    1c34:	e5970004 	ldr	r0, [r7, #4]
    1c38:	e2800010 	add	r0, r0, #16
    1c3c:	ebfff9eb 	bl	3f0 <afe_read_current>
    1c40:	e5d7301c 	ldrb	r3, [r7, #28]
    1c44:	e3530000 	cmp	r3, #0
    1c48:	1a000015 	bne	1ca4 <bmu_wake_up_chip+0x6ec>
    1c4c:	e597300c 	ldr	r3, [r7, #12]
    1c50:	e5d33059 	ldrb	r3, [r3, #89]	; 0x59
    1c54:	e3530000 	cmp	r3, #0
    1c58:	1a000011 	bne	1ca4 <bmu_wake_up_chip+0x6ec>
    1c5c:	e5973004 	ldr	r3, [r7, #4]
    1c60:	e300115d 	movw	r1, #349	; 0x15d
    1c64:	e5932010 	ldr	r2, [r3, #16]
    1c68:	e1520001 	cmp	r2, r1
    1c6c:	ca00000e 	bgt	1cac <bmu_wake_up_chip+0x6f4>
    1c70:	e282200a 	add	r2, r2, #10
    1c74:	e3520f5a 	cmp	r2, #360	; 0x168
    1c78:	8a000006 	bhi	1c98 <bmu_wake_up_chip+0x6e0>
    1c7c:	e5971000 	ldr	r1, [r7]
    1c80:	e593200c 	ldr	r2, [r3, #12]
    1c84:	e5913010 	ldr	r3, [r1, #16]
    1c88:	e593301c 	ldr	r3, [r3, #28]
    1c8c:	e2433064 	sub	r3, r3, #100	; 0x64
    1c90:	e1520003 	cmp	r2, r3
    1c94:	aa00005a 	bge	1e04 <bmu_wake_up_chip+0x84c>
    1c98:	e59f01cc 	ldr	r0, [pc, #460]	; 1e6c <bmu_wake_up_chip+0x8b4>
    1c9c:	ebfffffe 	bl	0 <printk>
    1ca0:	eaffff05 	b	18bc <bmu_wake_up_chip+0x304>
    1ca4:	e5973004 	ldr	r3, [r7, #4]
    1ca8:	e5932010 	ldr	r2, [r3, #16]
    1cac:	e5941000 	ldr	r1, [r4]
    1cb0:	e5911010 	ldr	r1, [r1, #16]
    1cb4:	e5910020 	ldr	r0, [r1, #32]
    1cb8:	e1520000 	cmp	r2, r0
    1cbc:	ca000006 	bgt	1cdc <bmu_wake_up_chip+0x724>
    1cc0:	e372000a 	cmn	r2, #10
    1cc4:	ba000004 	blt	1cdc <bmu_wake_up_chip+0x724>
    1cc8:	e591201c 	ldr	r2, [r1, #28]
    1ccc:	e593100c 	ldr	r1, [r3, #12]
    1cd0:	e2422064 	sub	r2, r2, #100	; 0x64
    1cd4:	e1510002 	cmp	r1, r2
    1cd8:	aa000045 	bge	1df4 <bmu_wake_up_chip+0x83c>
    1cdc:	e3a02063 	mov	r2, #99	; 0x63
    1ce0:	e5832008 	str	r2, [r3, #8]
    1ce4:	e594200c 	ldr	r2, [r4, #12]
    1ce8:	e5943004 	ldr	r3, [r4, #4]
    1cec:	e59f017c 	ldr	r0, [pc, #380]	; 1e70 <bmu_wake_up_chip+0x8b8>
    1cf0:	e592200c 	ldr	r2, [r2, #12]
    1cf4:	e2422001 	sub	r2, r2, #1
    1cf8:	e5832024 	str	r2, [r3, #36]	; 0x24
    1cfc:	e5943004 	ldr	r3, [r4, #4]
    1d00:	e3a02000 	mov	r2, #0
    1d04:	e5c4201d 	strb	r2, [r4, #29]
    1d08:	e5931024 	ldr	r1, [r3, #36]	; 0x24
    1d0c:	ebfffffe 	bl	0 <printk>
    1d10:	eafffee9 	b	18bc <bmu_wake_up_chip+0x304>
    1d14:	e59f0158 	ldr	r0, [pc, #344]	; 1e74 <bmu_wake_up_chip+0x8bc>
    1d18:	ebfffffe 	bl	0 <printk>
    1d1c:	e5953000 	ldr	r3, [r5]
    1d20:	e3a01064 	mov	r1, #100	; 0x64
    1d24:	e5956004 	ldr	r6, [r5, #4]
    1d28:	e5933010 	ldr	r3, [r3, #16]
    1d2c:	e5930018 	ldr	r0, [r3, #24]
    1d30:	ebfffffe 	bl	0 <__aeabi_idiv>
    1d34:	e595300c 	ldr	r3, [r5, #12]
    1d38:	e593300c 	ldr	r3, [r3, #12]
    1d3c:	e0803003 	add	r3, r0, r3
    1d40:	e5863024 	str	r3, [r6, #36]	; 0x24
    1d44:	e595300c 	ldr	r3, [r5, #12]
    1d48:	eafffeac 	b	1800 <bmu_wake_up_chip+0x248>
    1d4c:	e3a01020 	mov	r1, #32
    1d50:	e3a00009 	mov	r0, #9
    1d54:	ebfffdbc 	bl	144c <afe_register_write_byte>
    1d58:	eaffffaa 	b	1c08 <bmu_wake_up_chip+0x650>
    1d5c:	e280000c 	add	r0, r0, #12
    1d60:	ebfff9dc 	bl	4d8 <afe_read_cell_volt>
    1d64:	e5973004 	ldr	r3, [r7, #4]
    1d68:	e59f0108 	ldr	r0, [pc, #264]	; 1e78 <bmu_wake_up_chip+0x8c0>
    1d6c:	e593100c 	ldr	r1, [r3, #12]
    1d70:	ebfffffe 	bl	0 <printk>
    1d74:	e897000c 	ldm	r7, {r2, r3}
    1d78:	e5922010 	ldr	r2, [r2, #16]
    1d7c:	e593100c 	ldr	r1, [r3, #12]
    1d80:	e5922024 	ldr	r2, [r2, #36]	; 0x24
    1d84:	e1510002 	cmp	r1, r2
    1d88:	dafffef0 	ble	1950 <bmu_wake_up_chip+0x398>
    1d8c:	e3a02001 	mov	r2, #1
    1d90:	e5832008 	str	r2, [r3, #8]
    1d94:	e597300c 	ldr	r3, [r7, #12]
    1d98:	e1a01006 	mov	r1, r6
    1d9c:	e5974004 	ldr	r4, [r7, #4]
    1da0:	e593000c 	ldr	r0, [r3, #12]
    1da4:	ebfffffe 	bl	0 <__aeabi_idiv>
    1da8:	e5840024 	str	r0, [r4, #36]	; 0x24
    1dac:	e597300c 	ldr	r3, [r7, #12]
    1db0:	e5c38004 	strb	r8, [r3, #4]
    1db4:	e5973000 	ldr	r3, [r7]
    1db8:	e5933010 	ldr	r3, [r3, #16]
    1dbc:	e5d3302c 	ldrb	r3, [r3, #44]	; 0x2c
    1dc0:	e3530000 	cmp	r3, #0
    1dc4:	0afffebc 	beq	18bc <bmu_wake_up_chip+0x304>
    1dc8:	e5973004 	ldr	r3, [r7, #4]
    1dcc:	e59f00a8 	ldr	r0, [pc, #168]	; 1e7c <bmu_wake_up_chip+0x8c4>
    1dd0:	e5931024 	ldr	r1, [r3, #36]	; 0x24
    1dd4:	ebfffffe 	bl	0 <printk>
    1dd8:	eafffeb7 	b	18bc <bmu_wake_up_chip+0x304>
    1ddc:	e59f3050 	ldr	r3, [pc, #80]	; 1e34 <bmu_wake_up_chip+0x87c>
    1de0:	e59f0098 	ldr	r0, [pc, #152]	; 1e80 <bmu_wake_up_chip+0x8c8>
    1de4:	e5933004 	ldr	r3, [r3, #4]
    1de8:	e5931004 	ldr	r1, [r3, #4]
    1dec:	ebfffffe 	bl	0 <printk>
    1df0:	eafffe99 	b	185c <bmu_wake_up_chip+0x2a4>
    1df4:	e59f0088 	ldr	r0, [pc, #136]	; 1e84 <bmu_wake_up_chip+0x8cc>
    1df8:	ebfffffe 	bl	0 <printk>
    1dfc:	ebfffce6 	bl	119c <charge_end_process>
    1e00:	eafffead 	b	18bc <bmu_wake_up_chip+0x304>
    1e04:	e59f007c 	ldr	r0, [pc, #124]	; 1e88 <bmu_wake_up_chip+0x8d0>
    1e08:	ebfffffe 	bl	0 <printk>
    1e0c:	ebfffce2 	bl	119c <charge_end_process>
    1e10:	eafffea9 	b	18bc <bmu_wake_up_chip+0x304>
    1e14:	e5961018 	ldr	r1, [r6, #24]
    1e18:	e59f0028 	ldr	r0, [pc, #40]	; 1e48 <bmu_wake_up_chip+0x890>
    1e1c:	ebfffffe 	bl	0 <printk>
    1e20:	eafffeb3 	b	18f4 <bmu_wake_up_chip+0x33c>
    1e24:	e59f0060 	ldr	r0, [pc, #96]	; 1e8c <bmu_wake_up_chip+0x8d4>
    1e28:	e3a08000 	mov	r8, #0
    1e2c:	ebfffffe 	bl	0 <printk>
    1e30:	eafffe79 	b	181c <bmu_wake_up_chip+0x264>
    1e34:	00000000 	andeq	r0, r0, r0
    1e38:	000002e0 	andeq	r0, r0, r0, ror #5
    1e3c:	00000000 	andeq	r0, r0, r0
    1e40:	0000038c 	andeq	r0, r0, ip, lsl #7
    1e44:	000003c8 	andeq	r0, r0, r8, asr #7
    1e48:	00000404 	andeq	r0, r0, r4, lsl #8
    1e4c:	00000374 	andeq	r0, r0, r4, ror r3
    1e50:	000004fc 	strdeq	r0, [r0], -ip
    1e54:	000003bc 	undefined instruction 0x000003bc
    1e58:	000003f0 	strdeq	r0, [r0], -r0
    1e5c:	00000340 	andeq	r0, r0, r0, asr #6
    1e60:	000002f0 	strdeq	r0, [r0], -r0
    1e64:	00000324 	andeq	r0, r0, r4, lsr #6
    1e68:	00000454 	andeq	r0, r0, r4, asr r4
    1e6c:	000004d4 	ldrdeq	r0, [r0], -r4
    1e70:	00000490 	muleq	r0, r0, r4
    1e74:	00000418 	andeq	r0, r0, r8, lsl r4
    1e78:	000004e4 	andeq	r0, r0, r4, ror #9
    1e7c:	0000051c 	andeq	r0, r0, ip, lsl r5
    1e80:	00000438 	andeq	r0, r0, r8, lsr r4
    1e84:	00000470 	andeq	r0, r0, r0, ror r4
    1e88:	000004b8 	undefined instruction 0x000004b8
    1e8c:	000003dc 	ldrdeq	r0, [r0], -ip

00001e90 <bmu_power_down_chip>:
    1e90:	e92d4070 	push	{r4, r5, r6, lr}
    1e94:	e59f50d0 	ldr	r5, [pc, #208]	; 1f6c <bmu_power_down_chip+0xdc>
    1e98:	e5d53000 	ldrb	r3, [r5]
    1e9c:	e3530001 	cmp	r3, #1
    1ea0:	9a00002d 	bls	1f5c <bmu_power_down_chip+0xcc>
    1ea4:	e3a0106c 	mov	r1, #108	; 0x6c
    1ea8:	e3a00009 	mov	r0, #9
    1eac:	ebfffd66 	bl	144c <afe_register_write_byte>
    1eb0:	e59f40b8 	ldr	r4, [pc, #184]	; 1f70 <bmu_power_down_chip+0xe0>
    1eb4:	e5940004 	ldr	r0, [r4, #4]
    1eb8:	e280001c 	add	r0, r0, #28
    1ebc:	ebfff8d7 	bl	220 <afe_read_cell_temp>
    1ec0:	e5940004 	ldr	r0, [r4, #4]
    1ec4:	e280000c 	add	r0, r0, #12
    1ec8:	ebfff982 	bl	4d8 <afe_read_cell_volt>
    1ecc:	e5940004 	ldr	r0, [r4, #4]
    1ed0:	e2800010 	add	r0, r0, #16
    1ed4:	ebfff945 	bl	3f0 <afe_read_current>
    1ed8:	e5940004 	ldr	r0, [r4, #4]
    1edc:	e2800004 	add	r0, r0, #4
    1ee0:	ebfff913 	bl	334 <afe_read_car>
    1ee4:	e5943000 	ldr	r3, [r4]
    1ee8:	e5933010 	ldr	r3, [r3, #16]
    1eec:	e5d3302c 	ldrb	r3, [r3, #44]	; 0x2c
    1ef0:	e3530000 	cmp	r3, #0
    1ef4:	08bd8070 	popeq	{r4, r5, r6, pc}
    1ef8:	e59f0074 	ldr	r0, [pc, #116]	; 1f74 <bmu_power_down_chip+0xe4>
    1efc:	ebfffffe 	bl	0 <printk>
    1f00:	e5942004 	ldr	r2, [r4, #4]
    1f04:	e5d53000 	ldrb	r3, [r5]
    1f08:	e59f0068 	ldr	r0, [pc, #104]	; 1f78 <bmu_power_down_chip+0xe8>
    1f0c:	e592100c 	ldr	r1, [r2, #12]
    1f10:	e0010391 	mul	r1, r1, r3
    1f14:	ebfffffe 	bl	0 <printk>
    1f18:	e5943004 	ldr	r3, [r4, #4]
    1f1c:	e59f0058 	ldr	r0, [pc, #88]	; 1f7c <bmu_power_down_chip+0xec>
    1f20:	e5931008 	ldr	r1, [r3, #8]
    1f24:	ebfffffe 	bl	0 <printk>
    1f28:	e5943004 	ldr	r3, [r4, #4]
    1f2c:	e59f004c 	ldr	r0, [pc, #76]	; 1f80 <bmu_power_down_chip+0xf0>
    1f30:	e5931024 	ldr	r1, [r3, #36]	; 0x24
    1f34:	ebfffffe 	bl	0 <printk>
    1f38:	e5943004 	ldr	r3, [r4, #4]
    1f3c:	e59f0040 	ldr	r0, [pc, #64]	; 1f84 <bmu_power_down_chip+0xf4>
    1f40:	e5931004 	ldr	r1, [r3, #4]
    1f44:	ebfffffe 	bl	0 <printk>
    1f48:	e5943004 	ldr	r3, [r4, #4]
    1f4c:	e59f0034 	ldr	r0, [pc, #52]	; 1f88 <bmu_power_down_chip+0xf8>
    1f50:	e5931010 	ldr	r1, [r3, #16]
    1f54:	e8bd4070 	pop	{r4, r5, r6, lr}
    1f58:	eafffffe 	b	0 <printk>
    1f5c:	e3a01060 	mov	r1, #96	; 0x60
    1f60:	e3a00009 	mov	r0, #9
    1f64:	ebfffd38 	bl	144c <afe_register_write_byte>
    1f68:	eaffffd0 	b	1eb0 <bmu_power_down_chip+0x20>
	...
    1f74:	00000544 	andeq	r0, r0, r4, asr #10
    1f78:	00000560 	andeq	r0, r0, r0, ror #10
    1f7c:	00000580 	andeq	r0, r0, r0, lsl #11
    1f80:	000005a0 	andeq	r0, r0, r0, lsr #11
    1f84:	000005c0 	andeq	r0, r0, r0, asr #11
    1f88:	000005dc 	ldrdeq	r0, [r0], -ip

00001f8c <bmu_init_chip>:
    1f8c:	e92d45f0 	push	{r4, r5, r6, r7, r8, sl, lr}
    1f90:	e59f4c14 	ldr	r4, [pc, #3092]	; 2bac <bmu_init_chip+0xc20>
    1f94:	e24dd03c 	sub	sp, sp, #60	; 0x3c
    1f98:	e1a07000 	mov	r7, r0
    1f9c:	e59f0c0c 	ldr	r0, [pc, #3084]	; 2bb0 <bmu_init_chip+0xc24>
    1fa0:	ebfffffe 	bl	0 <printk>
    1fa4:	e594300c 	ldr	r3, [r4, #12]
    1fa8:	e59f6c04 	ldr	r6, [pc, #3076]	; 2bb4 <bmu_init_chip+0xc28>
    1fac:	e59f0c04 	ldr	r0, [pc, #3076]	; 2bb8 <bmu_init_chip+0xc2c>
    1fb0:	e5d3c022 	ldrb	ip, [r3, #34]	; 0x22
    1fb4:	e5d31021 	ldrb	r1, [r3, #33]	; 0x21
    1fb8:	e5d35025 	ldrb	r5, [r3, #37]	; 0x25
    1fbc:	e08ce001 	add	lr, ip, r1
    1fc0:	e5d32023 	ldrb	r2, [r3, #35]	; 0x23
    1fc4:	e001019c 	mul	r1, ip, r1
    1fc8:	e5d3c020 	ldrb	ip, [r3, #32]
    1fcc:	e5d33024 	ldrb	r3, [r3, #36]	; 0x24
    1fd0:	e08ee002 	add	lr, lr, r2
    1fd4:	e085500c 	add	r5, r5, ip
    1fd8:	e0855003 	add	r5, r5, r3
    1fdc:	e1a03101 	lsl	r3, r1, #2
    1fe0:	e0020392 	mul	r2, r2, r3
    1fe4:	e082310e 	add	r3, r2, lr, lsl #2
    1fe8:	e2833f56 	add	r3, r3, #344	; 0x158
    1fec:	e0835185 	add	r5, r3, r5, lsl #3
    1ff0:	e1a01005 	mov	r1, r5
    1ff4:	ebfffffe 	bl	0 <printk>
    1ff8:	e1a01005 	mov	r1, r5
    1ffc:	e59f0bb4 	ldr	r0, [pc, #2996]	; 2bb8 <bmu_init_chip+0xc2c>
    2000:	ebfffffe 	bl	0 <printk>
    2004:	e5960000 	ldr	r0, [r6]
    2008:	e1a01005 	mov	r1, r5
    200c:	ebfffffe 	bl	0 <__memzero>
    2010:	e5847000 	str	r7, [r4]
    2014:	e5970010 	ldr	r0, [r7, #16]
    2018:	e3a03000 	mov	r3, #0
    201c:	e7d01003 	ldrb	r1, [r0, r3]
    2020:	e5962000 	ldr	r2, [r6]
    2024:	e7c31002 	strb	r1, [r3, r2]
    2028:	e2833001 	add	r3, r3, #1
    202c:	e3530030 	cmp	r3, #48	; 0x30
    2030:	1afffff9 	bne	201c <bmu_init_chip+0x90>
    2034:	e59f3b78 	ldr	r3, [pc, #2936]	; 2bb4 <bmu_init_chip+0xc28>
    2038:	e3a02001 	mov	r2, #1
    203c:	e3a07000 	mov	r7, #0
    2040:	e5935000 	ldr	r5, [r3]
    2044:	e3a03000 	mov	r3, #0
    2048:	e2851060 	add	r1, r5, #96	; 0x60
    204c:	e2850034 	add	r0, r5, #52	; 0x34
    2050:	e584100c 	str	r1, [r4, #12]
    2054:	e5840004 	str	r0, [r4, #4]
    2058:	e300015e 	movw	r0, #350	; 0x15e
    205c:	e5c13005 	strb	r3, [r1, #5]
    2060:	e594100c 	ldr	r1, [r4, #12]
    2064:	e5810034 	str	r0, [r1, #52]	; 0x34
    2068:	e300044c 	movw	r0, #1100	; 0x44c
    206c:	e594100c 	ldr	r1, [r4, #12]
    2070:	e5c12026 	strb	r2, [r1, #38]	; 0x26
    2074:	e594100c 	ldr	r1, [r4, #12]
    2078:	e1c103b8 	strh	r0, [r1, #56]	; 0x38
    207c:	e3e00009 	mvn	r0, #9
    2080:	e594100c 	ldr	r1, [r4, #12]
    2084:	e5c13004 	strb	r3, [r1, #4]
    2088:	e594100c 	ldr	r1, [r4, #12]
    208c:	e5810048 	str	r0, [r1, #72]	; 0x48
    2090:	e594100c 	ldr	r1, [r4, #12]
    2094:	e5c1203a 	strb	r2, [r1, #58]	; 0x3a
    2098:	e3a01032 	mov	r1, #50	; 0x32
    209c:	e594200c 	ldr	r2, [r4, #12]
    20a0:	e582104c 	str	r1, [r2, #76]	; 0x4c
    20a4:	e5942000 	ldr	r2, [r4]
    20a8:	e5922010 	ldr	r2, [r2, #16]
    20ac:	e5d2202c 	ldrb	r2, [r2, #44]	; 0x2c
    20b0:	e1520003 	cmp	r2, r3
    20b4:	159f2af0 	ldrne	r2, [pc, #2800]	; 2bac <bmu_init_chip+0xc20>
    20b8:	1592200c 	ldrne	r2, [r2, #12]
    20bc:	1582304c 	strne	r3, [r2, #76]	; 0x4c
    20c0:	e3a02064 	mov	r2, #100	; 0x64
    20c4:	e594300c 	ldr	r3, [r4, #12]
    20c8:	e5832050 	str	r2, [r3, #80]	; 0x50
    20cc:	e3a02f4b 	mov	r2, #300	; 0x12c
    20d0:	e594300c 	ldr	r3, [r4, #12]
    20d4:	e5832054 	str	r2, [r3, #84]	; 0x54
    20d8:	e594300c 	ldr	r3, [r4, #12]
    20dc:	e5c37058 	strb	r7, [r3, #88]	; 0x58
    20e0:	e59f3ad4 	ldr	r3, [pc, #2772]	; 2bbc <bmu_init_chip+0xc30>
    20e4:	e5962000 	ldr	r2, [r6]
    20e8:	e28220bc 	add	r2, r2, #188	; 0xbc
    20ec:	e5832000 	str	r2, [r3]
    20f0:	ebfffffe 	bl	0 <bmu_init_gg>
    20f4:	e594300c 	ldr	r3, [r4, #12]
    20f8:	e5960000 	ldr	r0, [r6]
    20fc:	e59f1abc 	ldr	r1, [pc, #2748]	; 2bc0 <bmu_init_chip+0xc34>
    2100:	e5d32020 	ldrb	r2, [r3, #32]
    2104:	e2800f57 	add	r0, r0, #348	; 0x15c
    2108:	e1a02182 	lsl	r2, r2, #3
    210c:	ebfffffe 	bl	0 <memcpy>
    2110:	e594300c 	ldr	r3, [r4, #12]
    2114:	e5960000 	ldr	r0, [r6]
    2118:	e59f1aa4 	ldr	r1, [pc, #2724]	; 2bc4 <bmu_init_chip+0xc38>
    211c:	e5d38020 	ldrb	r8, [r3, #32]
    2120:	e5d32021 	ldrb	r2, [r3, #33]	; 0x21
    2124:	e1a08188 	lsl	r8, r8, #3
    2128:	e2888f57 	add	r8, r8, #348	; 0x15c
    212c:	e1a02102 	lsl	r2, r2, #2
    2130:	e0880000 	add	r0, r8, r0
    2134:	ebfffffe 	bl	0 <memcpy>
    2138:	e594300c 	ldr	r3, [r4, #12]
    213c:	e5960000 	ldr	r0, [r6]
    2140:	e59f1a80 	ldr	r1, [pc, #2688]	; 2bc8 <bmu_init_chip+0xc3c>
    2144:	e5d3c021 	ldrb	ip, [r3, #33]	; 0x21
    2148:	e5d32022 	ldrb	r2, [r3, #34]	; 0x22
    214c:	e088810c 	add	r8, r8, ip, lsl #2
    2150:	e1a02102 	lsl	r2, r2, #2
    2154:	e0880000 	add	r0, r8, r0
    2158:	ebfffffe 	bl	0 <memcpy>
    215c:	e594300c 	ldr	r3, [r4, #12]
    2160:	e5960000 	ldr	r0, [r6]
    2164:	e59f1a60 	ldr	r1, [pc, #2656]	; 2bcc <bmu_init_chip+0xc40>
    2168:	e5d3c022 	ldrb	ip, [r3, #34]	; 0x22
    216c:	e5d32023 	ldrb	r2, [r3, #35]	; 0x23
    2170:	e088810c 	add	r8, r8, ip, lsl #2
    2174:	e1a02102 	lsl	r2, r2, #2
    2178:	e0880000 	add	r0, r8, r0
    217c:	ebfffffe 	bl	0 <memcpy>
    2180:	e594200c 	ldr	r2, [r4, #12]
    2184:	e5960000 	ldr	r0, [r6]
    2188:	e59f1a40 	ldr	r1, [pc, #2624]	; 2bd0 <bmu_init_chip+0xc44>
    218c:	e5d23023 	ldrb	r3, [r2, #35]	; 0x23
    2190:	e5d2c021 	ldrb	ip, [r2, #33]	; 0x21
    2194:	e5d22022 	ldrb	r2, [r2, #34]	; 0x22
    2198:	e0888103 	add	r8, r8, r3, lsl #2
    219c:	e003039c 	mul	r3, ip, r3
    21a0:	e0880000 	add	r0, r8, r0
    21a4:	e1a03103 	lsl	r3, r3, #2
    21a8:	e0020392 	mul	r2, r2, r3
    21ac:	ebfffffe 	bl	0 <memcpy>
    21b0:	e594200c 	ldr	r2, [r4, #12]
    21b4:	e5960000 	ldr	r0, [r6]
    21b8:	e59f1a14 	ldr	r1, [pc, #2580]	; 2bd4 <bmu_init_chip+0xc48>
    21bc:	e5d2e022 	ldrb	lr, [r2, #34]	; 0x22
    21c0:	e5d23021 	ldrb	r3, [r2, #33]	; 0x21
    21c4:	e5d2c023 	ldrb	ip, [r2, #35]	; 0x23
    21c8:	e5d22025 	ldrb	r2, [r2, #37]	; 0x25
    21cc:	e003039e 	mul	r3, lr, r3
    21d0:	e1a02182 	lsl	r2, r2, #3
    21d4:	e1a03103 	lsl	r3, r3, #2
    21d8:	e028839c 	mla	r8, ip, r3, r8
    21dc:	e0880000 	add	r0, r8, r0
    21e0:	ebfffffe 	bl	0 <memcpy>
    21e4:	e594300c 	ldr	r3, [r4, #12]
    21e8:	e5960000 	ldr	r0, [r6]
    21ec:	e59f19e4 	ldr	r1, [pc, #2532]	; 2bd8 <bmu_init_chip+0xc4c>
    21f0:	e5d3c025 	ldrb	ip, [r3, #37]	; 0x25
    21f4:	e5d32024 	ldrb	r2, [r3, #36]	; 0x24
    21f8:	e080018c 	add	r0, r0, ip, lsl #3
    21fc:	e1a02182 	lsl	r2, r2, #3
    2200:	e0800008 	add	r0, r0, r8
    2204:	ebfffffe 	bl	0 <memcpy>
    2208:	e5943004 	ldr	r3, [r4, #4]
    220c:	e5c47013 	strb	r7, [r4, #19]
    2210:	e3a0090a 	mov	r0, #163840	; 0x28000
    2214:	e5c47015 	strb	r7, [r4, #21]
    2218:	e5837028 	str	r7, [r3, #40]	; 0x28
    221c:	e5943000 	ldr	r3, [r4]
    2220:	e594600c 	ldr	r6, [r4, #12]
    2224:	e5933010 	ldr	r3, [r3, #16]
    2228:	e5931000 	ldr	r1, [r3]
    222c:	ebfffffe 	bl	0 <__aeabi_idiv>
    2230:	e59f19a4 	ldr	r1, [pc, #2468]	; 2bdc <bmu_init_chip+0xc50>
    2234:	e5860000 	str	r0, [r6]
    2238:	e59f09a0 	ldr	r0, [pc, #2464]	; 2be0 <bmu_init_chip+0xc54>
    223c:	ebfffffe 	bl	0 <printk>
    2240:	e5943000 	ldr	r3, [r4]
    2244:	e5933010 	ldr	r3, [r3, #16]
    2248:	e5d3302c 	ldrb	r3, [r3, #44]	; 0x2c
    224c:	e1530007 	cmp	r3, r7
    2250:	1a00024f 	bne	2b94 <bmu_init_chip+0xc08>
    2254:	e595000c 	ldr	r0, [r5, #12]
    2258:	e895000e 	ldm	r5, {r1, r2, r3}
    225c:	e58d0000 	str	r0, [sp]
    2260:	e595c010 	ldr	ip, [r5, #16]
    2264:	e59f0978 	ldr	r0, [pc, #2424]	; 2be4 <bmu_init_chip+0xc58>
    2268:	e59f6978 	ldr	r6, [pc, #2424]	; 2be8 <bmu_init_chip+0xc5c>
    226c:	e58dc004 	str	ip, [sp, #4]
    2270:	e595c014 	ldr	ip, [r5, #20]
    2274:	e58dc008 	str	ip, [sp, #8]
    2278:	e595c018 	ldr	ip, [r5, #24]
    227c:	e58dc00c 	str	ip, [sp, #12]
    2280:	e595c01c 	ldr	ip, [r5, #28]
    2284:	e58dc010 	str	ip, [sp, #16]
    2288:	e595c020 	ldr	ip, [r5, #32]
    228c:	e58dc014 	str	ip, [sp, #20]
    2290:	e595c024 	ldr	ip, [r5, #36]	; 0x24
    2294:	e58dc018 	str	ip, [sp, #24]
    2298:	e595c028 	ldr	ip, [r5, #40]	; 0x28
    229c:	e58dc01c 	str	ip, [sp, #28]
    22a0:	e5d5c02c 	ldrb	ip, [r5, #44]	; 0x2c
    22a4:	e58dc020 	str	ip, [sp, #32]
    22a8:	ebfffffe 	bl	0 <printk>
    22ac:	e3a01000 	mov	r1, #0
    22b0:	e59f0934 	ldr	r0, [pc, #2356]	; 2bec <bmu_init_chip+0xc60>
    22b4:	ebfffffe 	bl	0 <printk>
    22b8:	e59f0930 	ldr	r0, [pc, #2352]	; 2bf0 <bmu_init_chip+0xc64>
    22bc:	ebfffffe 	bl	0 <printk>
    22c0:	e59f392c 	ldr	r3, [pc, #2348]	; 2bf4 <bmu_init_chip+0xc68>
    22c4:	e59f092c 	ldr	r0, [pc, #2348]	; 2bf8 <bmu_init_chip+0xc6c>
    22c8:	e5931000 	ldr	r1, [r3]
    22cc:	ebfffffe 	bl	0 <kobject_create_and_add>
    22d0:	e2861014 	add	r1, r6, #20
    22d4:	e5840020 	str	r0, [r4, #32]
    22d8:	ebfffffe 	bl	0 <sysfs_create_group>
    22dc:	e3500000 	cmp	r0, #0
    22e0:	0a0000f4 	beq	26b8 <bmu_init_chip+0x72c>
    22e4:	e59f0910 	ldr	r0, [pc, #2320]	; 2bfc <bmu_init_chip+0xc70>
    22e8:	ebfffffe 	bl	0 <printk>
    22ec:	e59f090c 	ldr	r0, [pc, #2316]	; 2c00 <bmu_init_chip+0xc74>
    22f0:	e2861014 	add	r1, r6, #20
    22f4:	ebfffffe 	bl	0 <sysfs_remove_group>
    22f8:	e28d502c 	add	r5, sp, #44	; 0x2c
    22fc:	e3a00018 	mov	r0, #24
    2300:	e1a01005 	mov	r1, r5
    2304:	ebfff76a 	bl	b4 <afe_register_read_word>
    2308:	e5943000 	ldr	r3, [r4]
    230c:	e5933010 	ldr	r3, [r3, #16]
    2310:	e5d3302c 	ldrb	r3, [r3, #44]	; 0x2c
    2314:	e3530000 	cmp	r3, #0
    2318:	1a000219 	bne	2b84 <bmu_init_chip+0xbf8>
    231c:	e1a00005 	mov	r0, r5
    2320:	ebfff78a 	bl	150 <afe_read_board_offset>
    2324:	e59d102c 	ldr	r1, [sp, #44]	; 0x2c
    2328:	e1a05000 	mov	r5, r0
    232c:	e59f08d0 	ldr	r0, [pc, #2256]	; 2c04 <bmu_init_chip+0xc78>
    2330:	ebfffffe 	bl	0 <printk>
    2334:	e3550000 	cmp	r5, #0
    2338:	ba000003 	blt	234c <bmu_init_chip+0x3c0>
    233c:	e59d302c 	ldr	r3, [sp, #44]	; 0x2c
    2340:	e2433001 	sub	r3, r3, #1
    2344:	e3530009 	cmp	r3, #9
    2348:	8a0000f2 	bhi	2718 <bmu_init_chip+0x78c>
    234c:	e28d7037 	add	r7, sp, #55	; 0x37
    2350:	e3a00009 	mov	r0, #9
    2354:	e1a01007 	mov	r1, r7
    2358:	ebfffc14 	bl	13b0 <afe_register_read_byte>
    235c:	e5dd2037 	ldrb	r2, [sp, #55]	; 0x37
    2360:	e1a01000 	mov	r1, r0
    2364:	e1a05000 	mov	r5, r0
    2368:	e59f0898 	ldr	r0, [pc, #2200]	; 2c08 <bmu_init_chip+0xc7c>
    236c:	ebfffffe 	bl	0 <printk>
    2370:	e5d63000 	ldrb	r3, [r6]
    2374:	e3530001 	cmp	r3, #1
    2378:	9a0000e2 	bls	2708 <bmu_init_chip+0x77c>
    237c:	e3a0102c 	mov	r1, #44	; 0x2c
    2380:	e3a00009 	mov	r0, #9
    2384:	ebfffc30 	bl	144c <afe_register_write_byte>
    2388:	e5dd3037 	ldrb	r3, [sp, #55]	; 0x37
    238c:	e7e03353 	ubfx	r3, r3, #6, #1
    2390:	e1933fa5 	orrs	r3, r3, r5, lsr #31
    2394:	1a0000eb 	bne	2748 <bmu_init_chip+0x7bc>
    2398:	e5943000 	ldr	r3, [r4]
    239c:	e3a05000 	mov	r5, #0
    23a0:	e59f0864 	ldr	r0, [pc, #2148]	; 2c0c <bmu_init_chip+0xc80>
    23a4:	e28d8032 	add	r8, sp, #50	; 0x32
    23a8:	e593c010 	ldr	ip, [r3, #16]
    23ac:	e89c400e 	ldm	ip, {r1, r2, r3, lr}
    23b0:	e58de000 	str	lr, [sp]
    23b4:	e59ce010 	ldr	lr, [ip, #16]
    23b8:	e58de004 	str	lr, [sp, #4]
    23bc:	e59ce014 	ldr	lr, [ip, #20]
    23c0:	e58de008 	str	lr, [sp, #8]
    23c4:	e59ce018 	ldr	lr, [ip, #24]
    23c8:	e58de00c 	str	lr, [sp, #12]
    23cc:	e59ce01c 	ldr	lr, [ip, #28]
    23d0:	e58de010 	str	lr, [sp, #16]
    23d4:	e59ce020 	ldr	lr, [ip, #32]
    23d8:	e58de014 	str	lr, [sp, #20]
    23dc:	e59ce024 	ldr	lr, [ip, #36]	; 0x24
    23e0:	e58de018 	str	lr, [sp, #24]
    23e4:	e59ce028 	ldr	lr, [ip, #40]	; 0x28
    23e8:	e58de01c 	str	lr, [sp, #28]
    23ec:	e5dcc02c 	ldrb	ip, [ip, #44]	; 0x2c
    23f0:	e58dc020 	str	ip, [sp, #32]
    23f4:	ebfffffe 	bl	0 <printk>
    23f8:	e3a00003 	mov	r0, #3
    23fc:	e1a01008 	mov	r1, r8
    2400:	ebfff72b 	bl	b4 <afe_register_read_word>
    2404:	e2855001 	add	r5, r5, #1
    2408:	e6ef5075 	uxtb	r5, r5
    240c:	e3500000 	cmp	r0, #0
    2410:	aa000001 	bge	241c <bmu_init_chip+0x490>
    2414:	e3550003 	cmp	r5, #3
    2418:	1afffff6 	bne	23f8 <bmu_init_chip+0x46c>
    241c:	e1dd13b2 	ldrh	r1, [sp, #50]	; 0x32
    2420:	e3a05000 	mov	r5, #0
    2424:	e59f07e4 	ldr	r0, [pc, #2020]	; 2c10 <bmu_init_chip+0xc84>
    2428:	e28d8036 	add	r8, sp, #54	; 0x36
    242c:	ebfffffe 	bl	0 <printk>
    2430:	e1dd33b2 	ldrh	r3, [sp, #50]	; 0x32
    2434:	e59f07d8 	ldr	r0, [pc, #2008]	; 2c14 <bmu_init_chip+0xc88>
    2438:	e7e0a453 	ubfx	sl, r3, #8, #1
    243c:	e1a03323 	lsr	r3, r3, #6
    2440:	e2033002 	and	r3, r3, #2
    2444:	e18aa003 	orr	sl, sl, r3
    2448:	e1a0100a 	mov	r1, sl
    244c:	ebfffffe 	bl	0 <printk>
    2450:	e3a00008 	mov	r0, #8
    2454:	e1a01008 	mov	r1, r8
    2458:	ebfffbd4 	bl	13b0 <afe_register_read_byte>
    245c:	e2855001 	add	r5, r5, #1
    2460:	e6ef5075 	uxtb	r5, r5
    2464:	e3500000 	cmp	r0, #0
    2468:	aa000001 	bge	2474 <bmu_init_chip+0x4e8>
    246c:	e3550003 	cmp	r5, #3
    2470:	1afffff6 	bne	2450 <bmu_init_chip+0x4c4>
    2474:	e5dd1036 	ldrb	r1, [sp, #54]	; 0x36
    2478:	e59f0798 	ldr	r0, [pc, #1944]	; 2c18 <bmu_init_chip+0xc8c>
    247c:	ebfffffe 	bl	0 <printk>
    2480:	e5dd1036 	ldrb	r1, [sp, #54]	; 0x36
    2484:	e35a0002 	cmp	sl, #2
    2488:	e20110fc 	and	r1, r1, #252	; 0xfc
    248c:	0a00008c 	beq	26c4 <bmu_init_chip+0x738>
    2490:	e3a05000 	mov	r5, #0
    2494:	e18a1001 	orr	r1, sl, r1
    2498:	e5cd1036 	strb	r1, [sp, #54]	; 0x36
    249c:	e3a00008 	mov	r0, #8
    24a0:	e2855001 	add	r5, r5, #1
    24a4:	ebfffbe8 	bl	144c <afe_register_write_byte>
    24a8:	e5dd1036 	ldrb	r1, [sp, #54]	; 0x36
    24ac:	e6ef5075 	uxtb	r5, r5
    24b0:	e1a0a000 	mov	sl, r0
    24b4:	e59f0760 	ldr	r0, [pc, #1888]	; 2c1c <bmu_init_chip+0xc90>
    24b8:	ebfffffe 	bl	0 <printk>
    24bc:	e35a0000 	cmp	sl, #0
    24c0:	aa000002 	bge	24d0 <bmu_init_chip+0x544>
    24c4:	e3550003 	cmp	r5, #3
    24c8:	15dd1036 	ldrbne	r1, [sp, #54]	; 0x36
    24cc:	1afffff2 	bne	249c <bmu_init_chip+0x510>
    24d0:	e1a01008 	mov	r1, r8
    24d4:	e3a00008 	mov	r0, #8
    24d8:	ebfffbb4 	bl	13b0 <afe_register_read_byte>
    24dc:	e5dd1036 	ldrb	r1, [sp, #54]	; 0x36
    24e0:	e59f0738 	ldr	r0, [pc, #1848]	; 2c20 <bmu_init_chip+0xc94>
    24e4:	e28d8034 	add	r8, sp, #52	; 0x34
    24e8:	ebfffffe 	bl	0 <printk>
    24ec:	e5940004 	ldr	r0, [r4, #4]
    24f0:	e280000c 	add	r0, r0, #12
    24f4:	ebfff7f7 	bl	4d8 <afe_read_cell_volt>
    24f8:	e5940004 	ldr	r0, [r4, #4]
    24fc:	e2800010 	add	r0, r0, #16
    2500:	ebfff7ba 	bl	3f0 <afe_read_current>
    2504:	e5940004 	ldr	r0, [r4, #4]
    2508:	e280001c 	add	r0, r0, #28
    250c:	ebfff743 	bl	220 <afe_read_cell_temp>
    2510:	e5940004 	ldr	r0, [r4, #4]
    2514:	e2800004 	add	r0, r0, #4
    2518:	ebfff785 	bl	334 <afe_read_car>
    251c:	e3a03000 	mov	r3, #0
    2520:	e5cd3037 	strb	r3, [sp, #55]	; 0x37
    2524:	ea000005 	b	2540 <bmu_init_chip+0x5b4>
    2528:	e5dd3037 	ldrb	r3, [sp, #55]	; 0x37
    252c:	e2833001 	add	r3, r3, #1
    2530:	e6ef3073 	uxtb	r3, r3
    2534:	e5cd3037 	strb	r3, [sp, #55]	; 0x37
    2538:	e3530002 	cmp	r3, #2
    253c:	8a000004 	bhi	2554 <bmu_init_chip+0x5c8>
    2540:	e3a00010 	mov	r0, #16
    2544:	e1a01008 	mov	r1, r8
    2548:	ebfff6d9 	bl	b4 <afe_register_read_word>
    254c:	e2505000 	subs	r5, r0, #0
    2550:	bafffff4 	blt	2528 <bmu_init_chip+0x59c>
    2554:	e5942004 	ldr	r2, [r4, #4]
    2558:	e5d63000 	ldrb	r3, [r6]
    255c:	e59f06c0 	ldr	r0, [pc, #1728]	; 2c24 <bmu_init_chip+0xc98>
    2560:	e592100c 	ldr	r1, [r2, #12]
    2564:	e59fa67c 	ldr	sl, [pc, #1660]	; 2be8 <bmu_init_chip+0xc5c>
    2568:	e59f863c 	ldr	r8, [pc, #1596]	; 2bac <bmu_init_chip+0xc20>
    256c:	e0010391 	mul	r1, r1, r3
    2570:	ebfffffe 	bl	0 <printk>
    2574:	e5943004 	ldr	r3, [r4, #4]
    2578:	e59f06a8 	ldr	r0, [pc, #1704]	; 2c28 <bmu_init_chip+0xc9c>
    257c:	e5931004 	ldr	r1, [r3, #4]
    2580:	ebfffffe 	bl	0 <printk>
    2584:	e5943004 	ldr	r3, [r4, #4]
    2588:	e59f069c 	ldr	r0, [pc, #1692]	; 2c2c <bmu_init_chip+0xca0>
    258c:	e5931010 	ldr	r1, [r3, #16]
    2590:	ebfffffe 	bl	0 <printk>
    2594:	e59f0694 	ldr	r0, [pc, #1684]	; 2c30 <bmu_init_chip+0xca4>
    2598:	e1a01005 	mov	r1, r5
    259c:	e1dd23b4 	ldrh	r2, [sp, #52]	; 0x34
    25a0:	ebfffffe 	bl	0 <printk>
    25a4:	e3550000 	cmp	r5, #0
    25a8:	ba000170 	blt	2b70 <bmu_init_chip+0xbe4>
    25ac:	e1dd33b4 	ldrh	r3, [sp, #52]	; 0x34
    25b0:	e3130001 	tst	r3, #1
    25b4:	1a000082 	bne	27c4 <bmu_init_chip+0x838>
    25b8:	e3130002 	tst	r3, #2
    25bc:	0a00003a 	beq	26ac <bmu_init_chip+0x720>
    25c0:	e5980004 	ldr	r0, [r8, #4]
    25c4:	e2800018 	add	r0, r0, #24
    25c8:	ebfff803 	bl	5dc <afe_read_ocv_volt>
    25cc:	e3a03001 	mov	r3, #1
    25d0:	e59f065c 	ldr	r0, [pc, #1628]	; 2c34 <bmu_init_chip+0xca8>
    25d4:	e5c83010 	strb	r3, [r8, #16]
    25d8:	ebfffffe 	bl	0 <printk>
    25dc:	e5940004 	ldr	r0, [r4, #4]
    25e0:	e59f65c4 	ldr	r6, [pc, #1476]	; 2bac <bmu_init_chip+0xc20>
    25e4:	e2800004 	add	r0, r0, #4
    25e8:	ebfff751 	bl	334 <afe_read_car>
    25ec:	e5942000 	ldr	r2, [r4]
    25f0:	e308351f 	movw	r3, #34079	; 0x851f
    25f4:	e5945004 	ldr	r5, [r4, #4]
    25f8:	e34531eb 	movt	r3, #20971	; 0x51eb
    25fc:	e592c010 	ldr	ip, [r2, #16]
    2600:	e5951004 	ldr	r1, [r5, #4]
    2604:	e59c2018 	ldr	r2, [ip, #24]
    2608:	e0c30293 	smull	r0, r3, r3, r2
    260c:	e1a02fc2 	asr	r2, r2, #31
    2610:	e06202c3 	rsb	r0, r2, r3, asr #5
    2614:	e1510000 	cmp	r1, r0
    2618:	aa00000f 	bge	265c <bmu_init_chip+0x6d0>
    261c:	e30f3449 	movw	r3, #62537	; 0xf449
    2620:	e34f3fff 	movt	r3, #65535	; 0xffff
    2624:	e1510003 	cmp	r1, r3
    2628:	ba00000b 	blt	265c <bmu_init_chip+0x6d0>
    262c:	e5dc302c 	ldrb	r3, [ip, #44]	; 0x2c
    2630:	e3530000 	cmp	r3, #0
    2634:	1a00003a 	bne	2724 <bmu_init_chip+0x798>
    2638:	e2400001 	sub	r0, r0, #1
    263c:	e5850004 	str	r0, [r5, #4]
    2640:	e5943004 	ldr	r3, [r4, #4]
    2644:	e5930004 	ldr	r0, [r3, #4]
    2648:	ebfff896 	bl	8a8 <afe_write_car>
    264c:	e5943004 	ldr	r3, [r4, #4]
    2650:	e5932004 	ldr	r2, [r3, #4]
    2654:	e5832020 	str	r2, [r3, #32]
    2658:	e5945004 	ldr	r5, [r4, #4]
    265c:	e2850004 	add	r0, r5, #4
    2660:	ebfff733 	bl	334 <afe_read_car>
    2664:	e5943004 	ldr	r3, [r4, #4]
    2668:	e59f05c8 	ldr	r0, [pc, #1480]	; 2c38 <bmu_init_chip+0xcac>
    266c:	e5931004 	ldr	r1, [r3, #4]
    2670:	ebfffffe 	bl	0 <printk>
    2674:	e1a01007 	mov	r1, r7
    2678:	e3a00000 	mov	r0, #0
    267c:	ebfffb4b 	bl	13b0 <afe_register_read_byte>
    2680:	e5dd1037 	ldrb	r1, [sp, #55]	; 0x37
    2684:	e59f05b0 	ldr	r0, [pc, #1456]	; 2c3c <bmu_init_chip+0xcb0>
    2688:	ebfffffe 	bl	0 <printk>
    268c:	e1a01007 	mov	r1, r7
    2690:	e3a00009 	mov	r0, #9
    2694:	ebfffb45 	bl	13b0 <afe_register_read_byte>
    2698:	e5dd1037 	ldrb	r1, [sp, #55]	; 0x37
    269c:	e59f059c 	ldr	r0, [pc, #1436]	; 2c40 <bmu_init_chip+0xcb4>
    26a0:	ebfffffe 	bl	0 <printk>
    26a4:	e28dd03c 	add	sp, sp, #60	; 0x3c
    26a8:	e8bd85f0 	pop	{r4, r5, r6, r7, r8, sl, pc}
    26ac:	e59f0590 	ldr	r0, [pc, #1424]	; 2c44 <bmu_init_chip+0xcb8>
    26b0:	ebfffffe 	bl	0 <printk>
    26b4:	eaffffc8 	b	25dc <bmu_init_chip+0x650>
    26b8:	e59f0588 	ldr	r0, [pc, #1416]	; 2c48 <bmu_init_chip+0xcbc>
    26bc:	ebfffffe 	bl	0 <printk>
    26c0:	eaffff0c 	b	22f8 <bmu_init_chip+0x36c>
    26c4:	e3a05000 	mov	r5, #0
    26c8:	e3811003 	orr	r1, r1, #3
    26cc:	e5cd1036 	strb	r1, [sp, #54]	; 0x36
    26d0:	e3a00008 	mov	r0, #8
    26d4:	e2855001 	add	r5, r5, #1
    26d8:	ebfffb5b 	bl	144c <afe_register_write_byte>
    26dc:	e5dd1036 	ldrb	r1, [sp, #54]	; 0x36
    26e0:	e6ef5075 	uxtb	r5, r5
    26e4:	e1a0a000 	mov	sl, r0
    26e8:	e59f055c 	ldr	r0, [pc, #1372]	; 2c4c <bmu_init_chip+0xcc0>
    26ec:	ebfffffe 	bl	0 <printk>
    26f0:	e35a0000 	cmp	sl, #0
    26f4:	aaffff75 	bge	24d0 <bmu_init_chip+0x544>
    26f8:	e3550003 	cmp	r5, #3
    26fc:	0affff73 	beq	24d0 <bmu_init_chip+0x544>
    2700:	e5dd1036 	ldrb	r1, [sp, #54]	; 0x36
    2704:	eafffff1 	b	26d0 <bmu_init_chip+0x744>
    2708:	e3a01020 	mov	r1, #32
    270c:	e3a00009 	mov	r0, #9
    2710:	ebfffb4d 	bl	144c <afe_register_write_byte>
    2714:	eaffff1b 	b	2388 <bmu_init_chip+0x3fc>
    2718:	e3a00007 	mov	r0, #7
    271c:	ebfff88b 	bl	950 <afe_write_board_offset>
    2720:	eaffff09 	b	234c <bmu_init_chip+0x3c0>
    2724:	e59f0524 	ldr	r0, [pc, #1316]	; 2c50 <bmu_init_chip+0xcc4>
    2728:	ebfffffe 	bl	0 <printk>
    272c:	e5963000 	ldr	r3, [r6]
    2730:	e3a01064 	mov	r1, #100	; 0x64
    2734:	e5965004 	ldr	r5, [r6, #4]
    2738:	e5933010 	ldr	r3, [r3, #16]
    273c:	e5930018 	ldr	r0, [r3, #24]
    2740:	ebfffffe 	bl	0 <__aeabi_idiv>
    2744:	eaffffbb 	b	2638 <bmu_init_chip+0x6ac>
    2748:	e5d63000 	ldrb	r3, [r6]
    274c:	e3530001 	cmp	r3, #1
    2750:	9a000017 	bls	27b4 <bmu_init_chip+0x828>
    2754:	e3a0102c 	mov	r1, #44	; 0x2c
    2758:	e3a00009 	mov	r0, #9
    275c:	ebfffb3a 	bl	144c <afe_register_write_byte>
    2760:	e3a00ffa 	mov	r0, #1000	; 0x3e8
    2764:	ebfffffe 	bl	0 <msleep>
    2768:	e1a01005 	mov	r1, r5
    276c:	e59f04e0 	ldr	r0, [pc, #1248]	; 2c54 <bmu_init_chip+0xcc8>
    2770:	e5dd2037 	ldrb	r2, [sp, #55]	; 0x37
    2774:	ebfffffe 	bl	0 <printk>
    2778:	e5943000 	ldr	r3, [r4]
    277c:	e5933010 	ldr	r3, [r3, #16]
    2780:	e5d3302c 	ldrb	r3, [r3, #44]	; 0x2c
    2784:	e3530000 	cmp	r3, #0
    2788:	0a000001 	beq	2794 <bmu_init_chip+0x808>
    278c:	e59f04c4 	ldr	r0, [pc, #1220]	; 2c58 <bmu_init_chip+0xccc>
    2790:	ebfffffe 	bl	0 <printk>
    2794:	e1a01007 	mov	r1, r7
    2798:	e3a00009 	mov	r0, #9
    279c:	ebfffb03 	bl	13b0 <afe_register_read_byte>
    27a0:	e5dd2037 	ldrb	r2, [sp, #55]	; 0x37
    27a4:	e1a01000 	mov	r1, r0
    27a8:	e59f04ac 	ldr	r0, [pc, #1196]	; 2c5c <bmu_init_chip+0xcd0>
    27ac:	ebfffffe 	bl	0 <printk>
    27b0:	eafffef8 	b	2398 <bmu_init_chip+0x40c>
    27b4:	e3a01020 	mov	r1, #32
    27b8:	e3a00009 	mov	r0, #9
    27bc:	ebfffb22 	bl	144c <afe_register_write_byte>
    27c0:	eaffffe6 	b	2760 <bmu_init_chip+0x7d4>
    27c4:	e3a03001 	mov	r3, #1
    27c8:	e3a00e7d 	mov	r0, #2000	; 0x7d0
    27cc:	e5c83013 	strb	r3, [r8, #19]
    27d0:	ebfffffe 	bl	0 <msleep>
    27d4:	e5980004 	ldr	r0, [r8, #4]
    27d8:	e2800018 	add	r0, r0, #24
    27dc:	ebfff77e 	bl	5dc <afe_read_ocv_volt>
    27e0:	e5980004 	ldr	r0, [r8, #4]
    27e4:	e280000c 	add	r0, r0, #12
    27e8:	ebfff73a 	bl	4d8 <afe_read_cell_volt>
    27ec:	e5da3000 	ldrb	r3, [sl]
    27f0:	e59f0468 	ldr	r0, [pc, #1128]	; 2c60 <bmu_init_chip+0xcd4>
    27f4:	e3530001 	cmp	r3, #1
    27f8:	85983004 	ldrhi	r3, [r8, #4]
    27fc:	8593200c 	ldrhi	r2, [r3, #12]
    2800:	85832018 	strhi	r2, [r3, #24]
    2804:	e5942004 	ldr	r2, [r4, #4]
    2808:	85da3000 	ldrbhi	r3, [sl]
    280c:	e5921018 	ldr	r1, [r2, #24]
    2810:	e0010391 	mul	r1, r1, r3
    2814:	ebfffffe 	bl	0 <printk>
    2818:	e5942004 	ldr	r2, [r4, #4]
    281c:	e5d63000 	ldrb	r3, [r6]
    2820:	e59f043c 	ldr	r0, [pc, #1084]	; 2c64 <bmu_init_chip+0xcd8>
    2824:	e592100c 	ldr	r1, [r2, #12]
    2828:	e0010391 	mul	r1, r1, r3
    282c:	ebfffffe 	bl	0 <printk>
    2830:	e5942000 	ldr	r2, [r4]
    2834:	e5940004 	ldr	r0, [r4, #4]
    2838:	e5921010 	ldr	r1, [r2, #16]
    283c:	e5903018 	ldr	r3, [r0, #24]
    2840:	e591101c 	ldr	r1, [r1, #28]
    2844:	e1530001 	cmp	r3, r1
    2848:	ca0000ba 	bgt	2b38 <bmu_init_chip+0xbac>
    284c:	e5922004 	ldr	r2, [r2, #4]
    2850:	e5922000 	ldr	r2, [r2]
    2854:	e1530002 	cmp	r3, r2
    2858:	ba0000b6 	blt	2b38 <bmu_init_chip+0xbac>
    285c:	e2800010 	add	r0, r0, #16
    2860:	e59f8344 	ldr	r8, [pc, #836]	; 2bac <bmu_init_chip+0xc20>
    2864:	ebfff6e1 	bl	3f0 <afe_read_current>
    2868:	e5943004 	ldr	r3, [r4, #4]
    286c:	e59f03f4 	ldr	r0, [pc, #1012]	; 2c68 <bmu_init_chip+0xcdc>
    2870:	e5931010 	ldr	r1, [r3, #16]
    2874:	ebfffffe 	bl	0 <printk>
    2878:	e5943004 	ldr	r3, [r4, #4]
    287c:	e5945004 	ldr	r5, [r4, #4]
    2880:	e5932010 	ldr	r2, [r3, #16]
    2884:	e3520032 	cmp	r2, #50	; 0x32
    2888:	c5932018 	ldrgt	r2, [r3, #24]
    288c:	d5932018 	ldrle	r2, [r3, #24]
    2890:	e5943000 	ldr	r3, [r4]
    2894:	c2422064 	subgt	r2, r2, #100	; 0x64
    2898:	c58d202c 	strgt	r2, [sp, #44]	; 0x2c
    289c:	d58d202c 	strle	r2, [sp, #44]	; 0x2c
    28a0:	e5931004 	ldr	r1, [r3, #4]
    28a4:	e5d30000 	ldrb	r0, [r3]
    28a8:	ebfff5d4 	bl	0 <one_latitude_table>
    28ac:	e5850008 	str	r0, [r5, #8]
    28b0:	e5943004 	ldr	r3, [r4, #4]
    28b4:	e59f03b0 	ldr	r0, [pc, #944]	; 2c6c <bmu_init_chip+0xce0>
    28b8:	e5931008 	ldr	r1, [r3, #8]
    28bc:	ebfffffe 	bl	0 <printk>
    28c0:	e5945004 	ldr	r5, [r4, #4]
    28c4:	e3a01064 	mov	r1, #100	; 0x64
    28c8:	e5953008 	ldr	r3, [r5, #8]
    28cc:	e3530064 	cmp	r3, #100	; 0x64
    28d0:	83a03032 	movhi	r3, #50	; 0x32
    28d4:	85853008 	strhi	r3, [r5, #8]
    28d8:	859f32cc 	ldrhi	r3, [pc, #716]	; 2bac <bmu_init_chip+0xc20>
    28dc:	e5942000 	ldr	r2, [r4]
    28e0:	85935004 	ldrhi	r5, [r3, #4]
    28e4:	e5922010 	ldr	r2, [r2, #16]
    28e8:	85953008 	ldrhi	r3, [r5, #8]
    28ec:	e5920018 	ldr	r0, [r2, #24]
    28f0:	e0000390 	mul	r0, r0, r3
    28f4:	ebfffffe 	bl	0 <__aeabi_idiv>
    28f8:	e5850004 	str	r0, [r5, #4]
    28fc:	e5940004 	ldr	r0, [r4, #4]
    2900:	e2800010 	add	r0, r0, #16
    2904:	ebfff6b9 	bl	3f0 <afe_read_current>
    2908:	e8940028 	ldm	r4, {r3, r5}
    290c:	e5933010 	ldr	r3, [r3, #16]
    2910:	e595200c 	ldr	r2, [r5, #12]
    2914:	e5933024 	ldr	r3, [r3, #36]	; 0x24
    2918:	e2833f57 	add	r3, r3, #348	; 0x15c
    291c:	e2833002 	add	r3, r3, #2
    2920:	e1520003 	cmp	r2, r3
    2924:	aa000013 	bge	2978 <bmu_init_chip+0x9ec>
    2928:	e5953010 	ldr	r3, [r5, #16]
    292c:	e3530032 	cmp	r3, #50	; 0x32
    2930:	da000010 	ble	2978 <bmu_init_chip+0x9ec>
    2934:	e59f0334 	ldr	r0, [pc, #820]	; 2c70 <bmu_init_chip+0xce4>
    2938:	ebfffffe 	bl	0 <printk>
    293c:	e5983004 	ldr	r3, [r8, #4]
    2940:	e59f032c 	ldr	r0, [pc, #812]	; 2c74 <bmu_init_chip+0xce8>
    2944:	e5931010 	ldr	r1, [r3, #16]
    2948:	ebfffffe 	bl	0 <printk>
    294c:	e5983004 	ldr	r3, [r8, #4]
    2950:	e3a02001 	mov	r2, #1
    2954:	e3a01064 	mov	r1, #100	; 0x64
    2958:	e5832008 	str	r2, [r3, #8]
    295c:	e8980028 	ldm	r8, {r3, r5}
    2960:	e5933010 	ldr	r3, [r3, #16]
    2964:	e5930018 	ldr	r0, [r3, #24]
    2968:	ebfffffe 	bl	0 <__aeabi_idiv>
    296c:	e280000a 	add	r0, r0, #10
    2970:	e5850004 	str	r0, [r5, #4]
    2974:	e5985004 	ldr	r5, [r8, #4]
    2978:	e594300c 	ldr	r3, [r4, #12]
    297c:	e5950004 	ldr	r0, [r5, #4]
    2980:	e59fa224 	ldr	sl, [pc, #548]	; 2bac <bmu_init_chip+0xc20>
    2984:	e5938000 	ldr	r8, [r3]
    2988:	e248300a 	sub	r3, r8, #10
    298c:	e1500003 	cmp	r0, r3
    2990:	ba000009 	blt	29bc <bmu_init_chip+0xa30>
    2994:	e1a00008 	mov	r0, r8
    2998:	e3a01064 	mov	r1, #100	; 0x64
    299c:	ebfffffe 	bl	0 <__aeabi_idiv>
    29a0:	e0600008 	rsb	r0, r0, r8
    29a4:	e5850004 	str	r0, [r5, #4]
    29a8:	e59a3004 	ldr	r3, [sl, #4]
    29ac:	e5932004 	ldr	r2, [r3, #4]
    29b0:	e5832020 	str	r2, [r3, #32]
    29b4:	e59a3004 	ldr	r3, [sl, #4]
    29b8:	e5930004 	ldr	r0, [r3, #4]
    29bc:	ebfff7b9 	bl	8a8 <afe_write_car>
    29c0:	e5943004 	ldr	r3, [r4, #4]
    29c4:	e59f02ac 	ldr	r0, [pc, #684]	; 2c78 <bmu_init_chip+0xcec>
    29c8:	e59f51dc 	ldr	r5, [pc, #476]	; 2bac <bmu_init_chip+0xc20>
    29cc:	e5932004 	ldr	r2, [r3, #4]
    29d0:	e5832020 	str	r2, [r3, #32]
    29d4:	e5942000 	ldr	r2, [r4]
    29d8:	e594300c 	ldr	r3, [r4, #12]
    29dc:	e5922010 	ldr	r2, [r2, #16]
    29e0:	e5922018 	ldr	r2, [r2, #24]
    29e4:	e583200c 	str	r2, [r3, #12]
    29e8:	ebfffffe 	bl	0 <printk>
    29ec:	e8940108 	ldm	r4, {r3, r8}
    29f0:	e3a01064 	mov	r1, #100	; 0x64
    29f4:	e5933010 	ldr	r3, [r3, #16]
    29f8:	e5980008 	ldr	r0, [r8, #8]
    29fc:	e5933018 	ldr	r3, [r3, #24]
    2a00:	e0000390 	mul	r0, r0, r3
    2a04:	ebfffffe 	bl	0 <__aeabi_idiv>
    2a08:	e5880024 	str	r0, [r8, #36]	; 0x24
    2a0c:	e5942004 	ldr	r2, [r4, #4]
    2a10:	e594300c 	ldr	r3, [r4, #12]
    2a14:	e5922024 	ldr	r2, [r2, #36]	; 0x24
    2a18:	e5832008 	str	r2, [r3, #8]
    2a1c:	e8940006 	ldm	r4, {r1, r2}
    2a20:	e594300c 	ldr	r3, [r4, #12]
    2a24:	e5911010 	ldr	r1, [r1, #16]
    2a28:	e5922024 	ldr	r2, [r2, #36]	; 0x24
    2a2c:	e5911018 	ldr	r1, [r1, #24]
    2a30:	e0622001 	rsb	r2, r2, r1
    2a34:	e5832010 	str	r2, [r3, #16]
    2a38:	e5943004 	ldr	r3, [r4, #4]
    2a3c:	e5933008 	ldr	r3, [r3, #8]
    2a40:	e3530001 	cmp	r3, #1
    2a44:	ca00000d 	bgt	2a80 <bmu_init_chip+0xaf4>
    2a48:	e595300c 	ldr	r3, [r5, #12]
    2a4c:	e3a02001 	mov	r2, #1
    2a50:	e3a00000 	mov	r0, #0
    2a54:	e5c32006 	strb	r2, [r3, #6]
    2a58:	e595300c 	ldr	r3, [r5, #12]
    2a5c:	e5830008 	str	r0, [r3, #8]
    2a60:	e5951004 	ldr	r1, [r5, #4]
    2a64:	e5913008 	ldr	r3, [r1, #8]
    2a68:	e1530000 	cmp	r3, r0
    2a6c:	d5810008 	strle	r0, [r1, #8]
    2a70:	d595300c 	ldrle	r3, [r5, #12]
    2a74:	d5c32004 	strble	r2, [r3, #4]
    2a78:	d5953004 	ldrle	r3, [r5, #4]
    2a7c:	d5933008 	ldrle	r3, [r3, #8]
    2a80:	e3530063 	cmp	r3, #99	; 0x63
    2a84:	da00000a 	ble	2ab4 <bmu_init_chip+0xb28>
    2a88:	e594200c 	ldr	r2, [r4, #12]
    2a8c:	e3a03001 	mov	r3, #1
    2a90:	e3a01064 	mov	r1, #100	; 0x64
    2a94:	e5c23005 	strb	r3, [r2, #5]
    2a98:	e5942004 	ldr	r2, [r4, #4]
    2a9c:	e5821008 	str	r1, [r2, #8]
    2aa0:	e3a01000 	mov	r1, #0
    2aa4:	e594200c 	ldr	r2, [r4, #12]
    2aa8:	e5821010 	str	r1, [r2, #16]
    2aac:	e594200c 	ldr	r2, [r4, #12]
    2ab0:	e5c23007 	strb	r3, [r2, #7]
    2ab4:	e5943000 	ldr	r3, [r4]
    2ab8:	e59f50ec 	ldr	r5, [pc, #236]	; 2bac <bmu_init_chip+0xc20>
    2abc:	e5933010 	ldr	r3, [r3, #16]
    2ac0:	e5d3302c 	ldrb	r3, [r3, #44]	; 0x2c
    2ac4:	e3530000 	cmp	r3, #0
    2ac8:	0afffec3 	beq	25dc <bmu_init_chip+0x650>
    2acc:	e59f01a8 	ldr	r0, [pc, #424]	; 2c7c <bmu_init_chip+0xcf0>
    2ad0:	ebfffffe 	bl	0 <printk>
    2ad4:	e5952004 	ldr	r2, [r5, #4]
    2ad8:	e5d63000 	ldrb	r3, [r6]
    2adc:	e59f019c 	ldr	r0, [pc, #412]	; 2c80 <bmu_init_chip+0xcf4>
    2ae0:	e592100c 	ldr	r1, [r2, #12]
    2ae4:	e0010391 	mul	r1, r1, r3
    2ae8:	ebfffffe 	bl	0 <printk>
    2aec:	e5953004 	ldr	r3, [r5, #4]
    2af0:	e59f018c 	ldr	r0, [pc, #396]	; 2c84 <bmu_init_chip+0xcf8>
    2af4:	e5931008 	ldr	r1, [r3, #8]
    2af8:	ebfffffe 	bl	0 <printk>
    2afc:	e5953004 	ldr	r3, [r5, #4]
    2b00:	e59f0180 	ldr	r0, [pc, #384]	; 2c88 <bmu_init_chip+0xcfc>
    2b04:	e5931024 	ldr	r1, [r3, #36]	; 0x24
    2b08:	ebfffffe 	bl	0 <printk>
    2b0c:	e5953004 	ldr	r3, [r5, #4]
    2b10:	e59f0174 	ldr	r0, [pc, #372]	; 2c8c <bmu_init_chip+0xd00>
    2b14:	e5931004 	ldr	r1, [r3, #4]
    2b18:	ebfffffe 	bl	0 <printk>
    2b1c:	e5953004 	ldr	r3, [r5, #4]
    2b20:	e59f0168 	ldr	r0, [pc, #360]	; 2c90 <bmu_init_chip+0xd04>
    2b24:	e5931010 	ldr	r1, [r3, #16]
    2b28:	ebfffffe 	bl	0 <printk>
    2b2c:	e59f0148 	ldr	r0, [pc, #328]	; 2c7c <bmu_init_chip+0xcf0>
    2b30:	ebfffffe 	bl	0 <printk>
    2b34:	eafffea8 	b	25dc <bmu_init_chip+0x650>
    2b38:	e3a00ffa 	mov	r0, #1000	; 0x3e8
    2b3c:	ebfffffe 	bl	0 <msleep>
    2b40:	e5940004 	ldr	r0, [r4, #4]
    2b44:	e280000c 	add	r0, r0, #12
    2b48:	ebfff662 	bl	4d8 <afe_read_cell_volt>
    2b4c:	e5943004 	ldr	r3, [r4, #4]
    2b50:	e59f013c 	ldr	r0, [pc, #316]	; 2c94 <bmu_init_chip+0xd08>
    2b54:	e593200c 	ldr	r2, [r3, #12]
    2b58:	e5832018 	str	r2, [r3, #24]
    2b5c:	e5943004 	ldr	r3, [r4, #4]
    2b60:	e593100c 	ldr	r1, [r3, #12]
    2b64:	ebfffffe 	bl	0 <printk>
    2b68:	e5940004 	ldr	r0, [r4, #4]
    2b6c:	eaffff3a 	b	285c <bmu_init_chip+0x8d0>
    2b70:	e59f0120 	ldr	r0, [pc, #288]	; 2c98 <bmu_init_chip+0xd0c>
    2b74:	ebfffffe 	bl	0 <printk>
    2b78:	e59f011c 	ldr	r0, [pc, #284]	; 2c9c <bmu_init_chip+0xd10>
    2b7c:	ebfffffe 	bl	0 <printk>
    2b80:	eafffe95 	b	25dc <bmu_init_chip+0x650>
    2b84:	e59d102c 	ldr	r1, [sp, #44]	; 0x2c
    2b88:	e59f0110 	ldr	r0, [pc, #272]	; 2ca0 <bmu_init_chip+0xd14>
    2b8c:	ebfffffe 	bl	0 <printk>
    2b90:	eafffde1 	b	231c <bmu_init_chip+0x390>
    2b94:	e59f3010 	ldr	r3, [pc, #16]	; 2bac <bmu_init_chip+0xc20>
    2b98:	e59f0104 	ldr	r0, [pc, #260]	; 2ca4 <bmu_init_chip+0xd18>
    2b9c:	e593300c 	ldr	r3, [r3, #12]
    2ba0:	e5931000 	ldr	r1, [r3]
    2ba4:	ebfffffe 	bl	0 <printk>
    2ba8:	eafffda9 	b	2254 <bmu_init_chip+0x2c8>
    2bac:	00000000 	andeq	r0, r0, r0
    2bb0:	000005fc 	strdeq	r0, [r0], -ip
    2bb4:	00000000 	andeq	r0, r0, r0
    2bb8:	00000624 	andeq	r0, r0, r4, lsr #12
	...
    2bdc:	00000660 	andeq	r0, r0, r0, ror #12
    2be0:	00000634 	andeq	r0, r0, r4, lsr r6
    2be4:	000006a0 	andeq	r0, r0, r0, lsr #13
    2be8:	00000000 	andeq	r0, r0, r0
    2bec:	000006e8 	andeq	r0, r0, r8, ror #13
    2bf0:	00000704 	andeq	r0, r0, r4, lsl #14
    2bf4:	00000000 	andeq	r0, r0, r0
    2bf8:	0000071c 	andeq	r0, r0, ip, lsl r7
    2bfc:	00000724 	andeq	r0, r0, r4, lsr #14
    2c00:	00000020 	andeq	r0, r0, r0, lsr #32
    2c04:	00000788 	andeq	r0, r0, r8, lsl #15
    2c08:	000007a4 	andeq	r0, r0, r4, lsr #15
    2c0c:	00000830 	andeq	r0, r0, r0, lsr r8
    2c10:	00000870 	andeq	r0, r0, r0, ror r8
    2c14:	00000890 	muleq	r0, r0, r8
    2c18:	000008a4 	andeq	r0, r0, r4, lsr #17
    2c1c:	000008c4 	andeq	r0, r0, r4, asr #17
    2c20:	00000904 	andeq	r0, r0, r4, lsl #18
    2c24:	00000920 	andeq	r0, r0, r0, lsr #18
    2c28:	0000093c 	andeq	r0, r0, ip, lsr r9
    2c2c:	00000958 	andeq	r0, r0, r8, asr r9
    2c30:	00000974 	andeq	r0, r0, r4, ror r9
    2c34:	00000b68 	andeq	r0, r0, r8, ror #22
    2c38:	00000c20 	andeq	r0, r0, r0, lsr #24
    2c3c:	00000c2c 	andeq	r0, r0, ip, lsr #24
    2c40:	00000c4c 	andeq	r0, r0, ip, asr #24
    2c44:	00000b88 	andeq	r0, r0, r8, lsl #23
    2c48:	00000748 	andeq	r0, r0, r8, asr #14
    2c4c:	000008e4 	andeq	r0, r0, r4, ror #17
    2c50:	00000c00 	andeq	r0, r0, r0, lsl #24
    2c54:	000007c8 	andeq	r0, r0, r8, asr #15
    2c58:	000007e4 	andeq	r0, r0, r4, ror #15
    2c5c:	00000808 	andeq	r0, r0, r8, lsl #16
    2c60:	0000099c 	muleq	r0, ip, r9
    2c64:	000009b4 	undefined instruction 0x000009b4
    2c68:	000009fc 	strdeq	r0, [r0], -ip
    2c6c:	00000a18 	andeq	r0, r0, r8, lsl sl
    2c70:	00000a3c 	andeq	r0, r0, ip, lsr sl
    2c74:	00000a58 	andeq	r0, r0, r8, asr sl
    2c78:	00000a74 	andeq	r0, r0, r4, ror sl
    2c7c:	00000a94 	muleq	r0, r4, sl
    2c80:	00000acc 	andeq	r0, r0, ip, asr #21
    2c84:	00000aec 	andeq	r0, r0, ip, ror #21
    2c88:	00000b0c 	andeq	r0, r0, ip, lsl #22
    2c8c:	00000b2c 	andeq	r0, r0, ip, lsr #22
    2c90:	00000b48 	andeq	r0, r0, r8, asr #22
    2c94:	000009c8 	andeq	r0, r0, r8, asr #19
    2c98:	00000ba4 	andeq	r0, r0, r4, lsr #23
    2c9c:	00000bcc 	andeq	r0, r0, ip, asr #23
    2ca0:	00000768 	andeq	r0, r0, r8, ror #14
    2ca4:	00000678 	andeq	r0, r0, r8, ror r6

00002ca8 <oz8806_debug_ctrl>:
    2ca8:	e92d4070 	push	{r4, r5, r6, lr}
    2cac:	e1a06002 	mov	r6, r2
    2cb0:	e24dd008 	sub	sp, sp, #8
    2cb4:	e59f008c 	ldr	r0, [pc, #140]	; 2d48 <oz8806_debug_ctrl+0xa0>
    2cb8:	e1a04003 	mov	r4, r3
    2cbc:	ebfffffe 	bl	0 <printk>
    2cc0:	e5d62001 	ldrb	r2, [r6, #1]
    2cc4:	e28d5004 	add	r5, sp, #4
    2cc8:	e5d63000 	ldrb	r3, [r6]
    2ccc:	e1a01005 	mov	r1, r5
    2cd0:	e59f0074 	ldr	r0, [pc, #116]	; 2d4c <oz8806_debug_ctrl+0xa4>
    2cd4:	e5cd2005 	strb	r2, [sp, #5]
    2cd8:	e5cd3004 	strb	r3, [sp, #4]
    2cdc:	e3a03000 	mov	r3, #0
    2ce0:	e5cd3006 	strb	r3, [sp, #6]
    2ce4:	ebfffffe 	bl	0 <printk>
    2ce8:	e1a00005 	mov	r0, r5
    2cec:	e1a0100d 	mov	r1, sp
    2cf0:	e3a02010 	mov	r2, #16
    2cf4:	ebfffffe 	bl	0 <simple_strtoul>
    2cf8:	e6ef3070 	uxtb	r3, r0
    2cfc:	e3530000 	cmp	r3, #0
    2d00:	1a000008 	bne	2d28 <oz8806_debug_ctrl+0x80>
    2d04:	e59f2044 	ldr	r2, [pc, #68]	; 2d50 <oz8806_debug_ctrl+0xa8>
    2d08:	e59f0044 	ldr	r0, [pc, #68]	; 2d54 <oz8806_debug_ctrl+0xac>
    2d0c:	e5922000 	ldr	r2, [r2]
    2d10:	e5922010 	ldr	r2, [r2, #16]
    2d14:	e5c2302c 	strb	r3, [r2, #44]	; 0x2c
    2d18:	ebfffffe 	bl	0 <printk>
    2d1c:	e1a00004 	mov	r0, r4
    2d20:	e28dd008 	add	sp, sp, #8
    2d24:	e8bd8070 	pop	{r4, r5, r6, pc}
    2d28:	e59f3020 	ldr	r3, [pc, #32]	; 2d50 <oz8806_debug_ctrl+0xa8>
    2d2c:	e3a02001 	mov	r2, #1
    2d30:	e59f0020 	ldr	r0, [pc, #32]	; 2d58 <oz8806_debug_ctrl+0xb0>
    2d34:	e5933000 	ldr	r3, [r3]
    2d38:	e5933010 	ldr	r3, [r3, #16]
    2d3c:	e5c3202c 	strb	r2, [r3, #44]	; 0x2c
    2d40:	ebfffffe 	bl	0 <printk>
    2d44:	eafffff4 	b	2d1c <oz8806_debug_ctrl+0x74>
    2d48:	00000c6c 	andeq	r0, r0, ip, ror #24
    2d4c:	00000c7c 	andeq	r0, r0, ip, ror ip
    2d50:	00000000 	andeq	r0, r0, r0
    2d54:	00000c98 	muleq	r0, r8, ip
    2d58:	00000c8c 	andeq	r0, r0, ip, lsl #25

00002d5c <oz8806_register_store>:
    2d5c:	e92d45f0 	push	{r4, r5, r6, r7, r8, sl, lr}
    2d60:	e1a04002 	mov	r4, r2
    2d64:	e24dd00c 	sub	sp, sp, #12
    2d68:	e59f00c8 	ldr	r0, [pc, #200]	; 2e38 <oz8806_register_store+0xdc>
    2d6c:	e1a0a003 	mov	sl, r3
    2d70:	ebfffffe 	bl	0 <printk>
    2d74:	e5d4c000 	ldrb	ip, [r4]
    2d78:	e28d6004 	add	r6, sp, #4
    2d7c:	e5d43001 	ldrb	r3, [r4, #1]
    2d80:	e1a0100d 	mov	r1, sp
    2d84:	e3a02010 	mov	r2, #16
    2d88:	e1a00006 	mov	r0, r6
    2d8c:	e5cdc004 	strb	ip, [sp, #4]
    2d90:	e3a05000 	mov	r5, #0
    2d94:	e5cd3005 	strb	r3, [sp, #5]
    2d98:	e1a0700d 	mov	r7, sp
    2d9c:	e5cd5006 	strb	r5, [sp, #6]
    2da0:	ebfffffe 	bl	0 <simple_strtoul>
    2da4:	e6ef8070 	uxtb	r8, r0
    2da8:	e1a00004 	mov	r0, r4
    2dac:	ebfffffe 	bl	0 <strlen>
    2db0:	e3500003 	cmp	r0, #3
    2db4:	da000015 	ble	2e10 <oz8806_register_store+0xb4>
    2db8:	e59f007c 	ldr	r0, [pc, #124]	; 2e3c <oz8806_register_store+0xe0>
    2dbc:	ebfffffe 	bl	0 <printk>
    2dc0:	e5d4c003 	ldrb	ip, [r4, #3]
    2dc4:	e5d43002 	ldrb	r3, [r4, #2]
    2dc8:	e3a02010 	mov	r2, #16
    2dcc:	e1a0100d 	mov	r1, sp
    2dd0:	e1a00006 	mov	r0, r6
    2dd4:	e5cdc005 	strb	ip, [sp, #5]
    2dd8:	e5cd3004 	strb	r3, [sp, #4]
    2ddc:	e5cd5006 	strb	r5, [sp, #6]
    2de0:	ebfffffe 	bl	0 <simple_strtoul>
    2de4:	e6ef3070 	uxtb	r3, r0
    2de8:	e1a00008 	mov	r0, r8
    2dec:	e1a01003 	mov	r1, r3
    2df0:	e5cd3007 	strb	r3, [sp, #7]
    2df4:	ebfff994 	bl	144c <afe_register_write_byte>
    2df8:	e59f0040 	ldr	r0, [pc, #64]	; 2e40 <oz8806_register_store+0xe4>
    2dfc:	e5dd1007 	ldrb	r1, [sp, #7]
    2e00:	ebfffffe 	bl	0 <printk>
    2e04:	e1a0000a 	mov	r0, sl
    2e08:	e28dd00c 	add	sp, sp, #12
    2e0c:	e8bd85f0 	pop	{r4, r5, r6, r7, r8, sl, pc}
    2e10:	e59f002c 	ldr	r0, [pc, #44]	; 2e44 <oz8806_register_store+0xe8>
    2e14:	ebfffffe 	bl	0 <printk>
    2e18:	e28d1007 	add	r1, sp, #7
    2e1c:	e1a00008 	mov	r0, r8
    2e20:	ebfff962 	bl	13b0 <afe_register_read_byte>
    2e24:	e59f0014 	ldr	r0, [pc, #20]	; 2e40 <oz8806_register_store+0xe4>
    2e28:	e5dd1007 	ldrb	r1, [sp, #7]
    2e2c:	ebfffffe 	bl	0 <printk>
    2e30:	e5dd0007 	ldrb	r0, [sp, #7]
    2e34:	eafffff3 	b	2e08 <oz8806_register_store+0xac>
    2e38:	00000ca8 	andeq	r0, r0, r8, lsr #25
    2e3c:	00000cc4 	andeq	r0, r0, r4, asr #25
    2e40:	00000cd4 	ldrdeq	r0, [r0], -r4
    2e44:	00000ce4 	andeq	r0, r0, r4, ror #25

00002e48 <oz8806_register_show>:
    2e48:	e3000000 	movw	r0, #0
    2e4c:	e92d4010 	push	{r4, lr}
    2e50:	e3400000 	movt	r0, #0
    2e54:	e1a04002 	mov	r4, r2
    2e58:	ebfffffe 	bl	0 <printk>
    2e5c:	e3000000 	movw	r0, #0
    2e60:	e3400000 	movt	r0, #0
    2e64:	ebfffffe 	bl	0 <printk>
    2e68:	e3001000 	movw	r1, #0
    2e6c:	e1a00004 	mov	r0, r4
    2e70:	e3401000 	movt	r1, #0
    2e74:	e3002f0a 	movw	r2, #3850	; 0xf0a
    2e78:	e8bd4010 	pop	{r4, lr}
    2e7c:	eafffffe 	b	0 <sprintf>

00002e80 <bmu_call>:
    2e80:	e59f20a0 	ldr	r2, [pc, #160]	; 2f28 <bmu_call+0xa8>
    2e84:	e3a030d0 	mov	r3, #208	; 0xd0
    2e88:	e92d4030 	push	{r4, r5, lr}
    2e8c:	e59fe098 	ldr	lr, [pc, #152]	; 2f2c <bmu_call+0xac>
    2e90:	e8920007 	ldm	r2, {r0, r1, r2}
    2e94:	e24dd01c 	sub	sp, sp, #28
    2e98:	e59ee020 	ldr	lr, [lr, #32]
    2e9c:	e1a0c00d 	mov	ip, sp
    2ea0:	e59f5088 	ldr	r5, [pc, #136]	; 2f30 <bmu_call+0xb0>
    2ea4:	e3a04000 	mov	r4, #0
    2ea8:	e58d4014 	str	r4, [sp, #20]
    2eac:	e88c0007 	stm	ip, {r0, r1, r2}
    2eb0:	e1a0000e 	mov	r0, lr
    2eb4:	e1a0200d 	mov	r2, sp
    2eb8:	e28d100c 	add	r1, sp, #12
    2ebc:	e58d5010 	str	r5, [sp, #16]
    2ec0:	e58de00c 	str	lr, [sp, #12]
    2ec4:	ebfffffe 	bl	0 <call_usermodehelper_setup>
    2ec8:	e2505000 	subs	r5, r0, #0
    2ecc:	0a000010 	beq	2f14 <bmu_call+0x94>
    2ed0:	e1a01004 	mov	r1, r4
    2ed4:	e1a02004 	mov	r2, r4
    2ed8:	e1a03004 	mov	r3, r4
    2edc:	ebfffffe 	bl	0 <call_usermodehelper_setfns>
    2ee0:	e1a00005 	mov	r0, r5
    2ee4:	e3a01001 	mov	r1, #1
    2ee8:	ebfffffe 	bl	0 <call_usermodehelper_exec>
    2eec:	e3500000 	cmp	r0, #0
    2ef0:	1a000008 	bne	2f18 <bmu_call+0x98>
    2ef4:	e59f3038 	ldr	r3, [pc, #56]	; 2f34 <bmu_call+0xb4>
    2ef8:	e5933000 	ldr	r3, [r3]
    2efc:	e5933010 	ldr	r3, [r3, #16]
    2f00:	e5d3302c 	ldrb	r3, [r3, #44]	; 0x2c
    2f04:	e1530004 	cmp	r3, r4
    2f08:	1a000002 	bne	2f18 <bmu_call+0x98>
    2f0c:	e28dd01c 	add	sp, sp, #28
    2f10:	e8bd8030 	pop	{r4, r5, pc}
    2f14:	e3e0000b 	mvn	r0, #11
    2f18:	e1a01000 	mov	r1, r0
    2f1c:	e59f0014 	ldr	r0, [pc, #20]	; 2f38 <bmu_call+0xb8>
    2f20:	ebfffffe 	bl	0 <printk>
    2f24:	eafffff8 	b	2f0c <bmu_call+0x8c>
	...
    2f30:	00000d28 	andeq	r0, r0, r8, lsr #26
    2f34:	00000000 	andeq	r0, r0, r0
    2f38:	00000d3c 	andeq	r0, r0, ip, lsr sp

00002f3c <bmu_polling_loop>:
    2f3c:	e92d4ff0 	push	{r4, r5, r6, r7, r8, r9, sl, fp, lr}
    2f40:	e59f4e58 	ldr	r4, [pc, #3672]	; 3da0 <bmu_polling_loop+0xe64>
    2f44:	e24dd014 	sub	sp, sp, #20
    2f48:	e5d43024 	ldrb	r3, [r4, #36]	; 0x24
    2f4c:	e3530000 	cmp	r3, #0
    2f50:	0a000115 	beq	33ac <bmu_polling_loop+0x470>
    2f54:	e5d4302e 	ldrb	r3, [r4, #46]	; 0x2e
    2f58:	e3530000 	cmp	r3, #0
    2f5c:	059f5e30 	ldreq	r5, [pc, #3632]	; 3d94 <bmu_polling_loop+0xe58>
    2f60:	1a000154 	bne	34b8 <bmu_polling_loop+0x57c>
    2f64:	e5943004 	ldr	r3, [r4, #4]
    2f68:	e5932004 	ldr	r2, [r3, #4]
    2f6c:	e5832020 	str	r2, [r3, #32]
    2f70:	e5940004 	ldr	r0, [r4, #4]
    2f74:	e280001c 	add	r0, r0, #28
    2f78:	ebfff4a8 	bl	220 <afe_read_cell_temp>
    2f7c:	e5940004 	ldr	r0, [r4, #4]
    2f80:	e280000c 	add	r0, r0, #12
    2f84:	ebfff553 	bl	4d8 <afe_read_cell_volt>
    2f88:	e5940004 	ldr	r0, [r4, #4]
    2f8c:	e2800010 	add	r0, r0, #16
    2f90:	ebfff516 	bl	3f0 <afe_read_current>
    2f94:	e5940004 	ldr	r0, [r4, #4]
    2f98:	e2800004 	add	r0, r0, #4
    2f9c:	ebfff4e4 	bl	334 <afe_read_car>
    2fa0:	e5943000 	ldr	r3, [r4]
    2fa4:	e5933010 	ldr	r3, [r3, #16]
    2fa8:	e5d3302c 	ldrb	r3, [r3, #44]	; 0x2c
    2fac:	e3530000 	cmp	r3, #0
    2fb0:	1a000294 	bne	3a08 <bmu_polling_loop+0xacc>
    2fb4:	e5d43015 	ldrb	r3, [r4, #21]
    2fb8:	e59f6de0 	ldr	r6, [pc, #3552]	; 3da0 <bmu_polling_loop+0xe64>
    2fbc:	e3530000 	cmp	r3, #0
    2fc0:	1a0000be 	bne	32c0 <bmu_polling_loop+0x384>
    2fc4:	e5963004 	ldr	r3, [r6, #4]
    2fc8:	e596200c 	ldr	r2, [r6, #12]
    2fcc:	e5920008 	ldr	r0, [r2, #8]
    2fd0:	e593c004 	ldr	ip, [r3, #4]
    2fd4:	e5931020 	ldr	r1, [r3, #32]
    2fd8:	e08c3000 	add	r3, ip, r0
    2fdc:	e0613003 	rsb	r3, r1, r3
    2fe0:	e5823008 	str	r3, [r2, #8]
    2fe4:	e5942004 	ldr	r2, [r4, #4]
    2fe8:	e594300c 	ldr	r3, [r4, #12]
    2fec:	e592c020 	ldr	ip, [r2, #32]
    2ff0:	e5930010 	ldr	r0, [r3, #16]
    2ff4:	e5921004 	ldr	r1, [r2, #4]
    2ff8:	e08c2000 	add	r2, ip, r0
    2ffc:	e0612002 	rsb	r2, r1, r2
    3000:	e5832010 	str	r2, [r3, #16]
    3004:	e594300c 	ldr	r3, [r4, #12]
    3008:	e5932008 	ldr	r2, [r3, #8]
    300c:	e3520000 	cmp	r2, #0
    3010:	b3a02000 	movlt	r2, #0
    3014:	b5832008 	strlt	r2, [r3, #8]
    3018:	b59f3d80 	ldrlt	r3, [pc, #3456]	; 3da0 <bmu_polling_loop+0xe64>
    301c:	b593300c 	ldrlt	r3, [r3, #12]
    3020:	e5932010 	ldr	r2, [r3, #16]
    3024:	e3520000 	cmp	r2, #0
    3028:	b3a02000 	movlt	r2, #0
    302c:	b5832010 	strlt	r2, [r3, #16]
    3030:	ebfffffe 	bl	2e80 <bmu_call>
    3034:	e5943000 	ldr	r3, [r4]
    3038:	e5933010 	ldr	r3, [r3, #16]
    303c:	e5d3302c 	ldrb	r3, [r3, #44]	; 0x2c
    3040:	e3530000 	cmp	r3, #0
    3044:	1a0002e3 	bne	3bd8 <bmu_polling_loop+0xc9c>
    3048:	e594300c 	ldr	r3, [r4, #12]
    304c:	e59f6d4c 	ldr	r6, [pc, #3404]	; 3da0 <bmu_polling_loop+0xe64>
    3050:	e5d33005 	ldrb	r3, [r3, #5]
    3054:	e3530000 	cmp	r3, #0
    3058:	05c63011 	strbeq	r3, [r6, #17]
    305c:	0a000002 	beq	306c <bmu_polling_loop+0x130>
    3060:	e5d63011 	ldrb	r3, [r6, #17]
    3064:	e3530000 	cmp	r3, #0
    3068:	0a00023d 	beq	3964 <bmu_polling_loop+0xa28>
    306c:	e5d43012 	ldrb	r3, [r4, #18]
    3070:	e59f6d28 	ldr	r6, [pc, #3368]	; 3da0 <bmu_polling_loop+0xe64>
    3074:	e3530000 	cmp	r3, #0
    3078:	0a00001f 	beq	30fc <bmu_polling_loop+0x1c0>
    307c:	e5d67011 	ldrb	r7, [r6, #17]
    3080:	e3570000 	cmp	r7, #0
    3084:	13a03000 	movne	r3, #0
    3088:	15c63012 	strbne	r3, [r6, #18]
    308c:	1a00001a 	bne	30fc <bmu_polling_loop+0x1c0>
    3090:	e5963004 	ldr	r3, [r6, #4]
    3094:	e5932008 	ldr	r2, [r3, #8]
    3098:	e3520062 	cmp	r2, #98	; 0x62
    309c:	ca000435 	bgt	4178 <bmu_polling_loop+0x123c>
    30a0:	e2822001 	add	r2, r2, #1
    30a4:	e5832008 	str	r2, [r3, #8]
    30a8:	e5962004 	ldr	r2, [r6, #4]
    30ac:	e308351f 	movw	r3, #34079	; 0x851f
    30b0:	e596100c 	ldr	r1, [r6, #12]
    30b4:	e34531eb 	movt	r3, #20971	; 0x51eb
    30b8:	e5920008 	ldr	r0, [r2, #8]
    30bc:	e591100c 	ldr	r1, [r1, #12]
    30c0:	e0010190 	mul	r1, r0, r1
    30c4:	e0c0c193 	smull	ip, r0, r3, r1
    30c8:	e1a01fc1 	asr	r1, r1, #31
    30cc:	e06112c0 	rsb	r1, r1, r0, asr #5
    30d0:	e5821024 	str	r1, [r2, #36]	; 0x24
    30d4:	e596100c 	ldr	r1, [r6, #12]
    30d8:	e5962004 	ldr	r2, [r6, #4]
    30dc:	e591100c 	ldr	r1, [r1, #12]
    30e0:	e5920024 	ldr	r0, [r2, #36]	; 0x24
    30e4:	e0c3e193 	smull	lr, r3, r3, r1
    30e8:	e1a01fc1 	asr	r1, r1, #31
    30ec:	e2400001 	sub	r0, r0, #1
    30f0:	e06132c3 	rsb	r3, r1, r3, asr #5
    30f4:	e0803003 	add	r3, r0, r3
    30f8:	e5823024 	str	r3, [r2, #36]	; 0x24
    30fc:	e594300c 	ldr	r3, [r4, #12]
    3100:	e59f2c98 	ldr	r2, [pc, #3224]	; 3da0 <bmu_polling_loop+0xe64>
    3104:	e5d33004 	ldrb	r3, [r3, #4]
    3108:	e3530000 	cmp	r3, #0
    310c:	05c23031 	strbeq	r3, [r2, #49]	; 0x31
    3110:	1a000063 	bne	32a4 <bmu_polling_loop+0x368>
    3114:	ebfff664 	bl	aac <oz8806_over_flow_prevent>
    3118:	e5943000 	ldr	r3, [r4]
    311c:	e5942004 	ldr	r2, [r4, #4]
    3120:	e5933010 	ldr	r3, [r3, #16]
    3124:	e592200c 	ldr	r2, [r2, #12]
    3128:	e5933024 	ldr	r3, [r3, #36]	; 0x24
    312c:	e2433064 	sub	r3, r3, #100	; 0x64
    3130:	e1520003 	cmp	r2, r3
    3134:	da0000dd 	ble	34b0 <bmu_polling_loop+0x574>
    3138:	e594300c 	ldr	r3, [r4, #12]
    313c:	e59f6c5c 	ldr	r6, [pc, #3164]	; 3da0 <bmu_polling_loop+0xe64>
    3140:	e5932018 	ldr	r2, [r3, #24]
    3144:	e2822001 	add	r2, r2, #1
    3148:	e5832018 	str	r2, [r3, #24]
    314c:	e5943000 	ldr	r3, [r4]
    3150:	e5933010 	ldr	r3, [r3, #16]
    3154:	e5d3302c 	ldrb	r3, [r3, #44]	; 0x2c
    3158:	e3530000 	cmp	r3, #0
    315c:	1a000249 	bne	3a88 <bmu_polling_loop+0xb4c>
    3160:	e5d43015 	ldrb	r3, [r4, #21]
    3164:	e59f6c34 	ldr	r6, [pc, #3124]	; 3da0 <bmu_polling_loop+0xe64>
    3168:	e3530000 	cmp	r3, #0
    316c:	1a00003b 	bne	3260 <bmu_polling_loop+0x324>
    3170:	e5950010 	ldr	r0, [r5, #16]
    3174:	ebfff702 	bl	d84 <bmu_read_data>
    3178:	e894000c 	ldm	r4, {r2, r3}
    317c:	e594700c 	ldr	r7, [r4, #12]
    3180:	e592c010 	ldr	ip, [r2, #16]
    3184:	e5931024 	ldr	r1, [r3, #36]	; 0x24
    3188:	e597200c 	ldr	r2, [r7, #12]
    318c:	e59c3018 	ldr	r3, [ip, #24]
    3190:	e59f8c08 	ldr	r8, [pc, #3080]	; 3da0 <bmu_polling_loop+0xe64>
    3194:	e1a06000 	mov	r6, r0
    3198:	e308051f 	movw	r0, #34079	; 0x851f
    319c:	e34501eb 	movt	r0, #20971	; 0x51eb
    31a0:	e0c0e390 	smull	lr, r0, r0, r3
    31a4:	e1a0efc3 	asr	lr, r3, #31
    31a8:	e06e02c0 	rsb	r0, lr, r0, asr #5
    31ac:	e0800002 	add	r0, r0, r2
    31b0:	e1510000 	cmp	r1, r0
    31b4:	ca000221 	bgt	3a40 <bmu_polling_loop+0xb04>
    31b8:	e3a0006e 	mov	r0, #110	; 0x6e
    31bc:	e3061667 	movw	r1, #26215	; 0x6667
    31c0:	e3461666 	movt	r1, #26214	; 0x6666
    31c4:	e0000390 	mul	r0, r0, r3
    31c8:	e0c1e091 	smull	lr, r1, r1, r0
    31cc:	e1a00fc0 	asr	r0, r0, #31
    31d0:	e0601141 	rsb	r1, r0, r1, asr #2
    31d4:	e1510002 	cmp	r1, r2
    31d8:	ba0001fb 	blt	39cc <bmu_polling_loop+0xa90>
    31dc:	e3520000 	cmp	r2, #0
    31e0:	da0001e5 	ble	397c <bmu_polling_loop+0xa40>
    31e4:	e0833103 	add	r3, r3, r3, lsl #2
    31e8:	e308151f 	movw	r1, #34079	; 0x851f
    31ec:	e34511eb 	movt	r1, #20971	; 0x51eb
    31f0:	e1a03203 	lsl	r3, r3, #4
    31f4:	e0c10391 	smull	r0, r1, r1, r3
    31f8:	e1a03fc3 	asr	r3, r3, #31
    31fc:	e06332c1 	rsb	r3, r3, r1, asr #5
    3200:	e1530002 	cmp	r3, r2
    3204:	ca0001e4 	bgt	399c <bmu_polling_loop+0xa60>
    3208:	e5dc302c 	ldrb	r3, [ip, #44]	; 0x2c
    320c:	e3530000 	cmp	r3, #0
    3210:	1a00026c 	bne	3bc8 <bmu_polling_loop+0xc8c>
    3214:	e3560000 	cmp	r6, #0
    3218:	ba000050 	blt	3360 <bmu_polling_loop+0x424>
    321c:	e5943004 	ldr	r3, [r4, #4]
    3220:	e5941028 	ldr	r1, [r4, #40]	; 0x28
    3224:	e59f7b74 	ldr	r7, [pc, #2932]	; 3da0 <bmu_polling_loop+0xe64>
    3228:	e5932008 	ldr	r2, [r3, #8]
    322c:	e1520001 	cmp	r2, r1
    3230:	0a000035 	beq	330c <bmu_polling_loop+0x3d0>
    3234:	e5872028 	str	r2, [r7, #40]	; 0x28
    3238:	e5950010 	ldr	r0, [r5, #16]
    323c:	e5931024 	ldr	r1, [r3, #36]	; 0x24
    3240:	ebfff6ed 	bl	dfc <bmu_write_data>
    3244:	e5973000 	ldr	r3, [r7]
    3248:	e5933010 	ldr	r3, [r3, #16]
    324c:	e5d3302c 	ldrb	r3, [r3, #44]	; 0x2c
    3250:	e3530000 	cmp	r3, #0
    3254:	1a0003d0 	bne	419c <bmu_polling_loop+0x1260>
    3258:	e28dd014 	add	sp, sp, #20
    325c:	e8bd8ff0 	pop	{r4, r5, r6, r7, r8, r9, sl, fp, pc}
    3260:	e5d63014 	ldrb	r3, [r6, #20]
    3264:	e3a02000 	mov	r2, #0
    3268:	e5c62015 	strb	r2, [r6, #21]
    326c:	e1530002 	cmp	r3, r2
    3270:	1a000273 	bne	3c44 <bmu_polling_loop+0xd08>
    3274:	e5d43012 	ldrb	r3, [r4, #18]
    3278:	e59f6b20 	ldr	r6, [pc, #2848]	; 3da0 <bmu_polling_loop+0xe64>
    327c:	e3530000 	cmp	r3, #0
    3280:	0affffba 	beq	3170 <bmu_polling_loop+0x234>
    3284:	e59f0a40 	ldr	r0, [pc, #2624]	; 3ccc <bmu_polling_loop+0xd90>
    3288:	ebfffffe 	bl	0 <printk>
    328c:	e3a03001 	mov	r3, #1
    3290:	e5c6301d 	strb	r3, [r6, #29]
    3294:	ebfff7c0 	bl	119c <charge_end_process>
    3298:	e3a03000 	mov	r3, #0
    329c:	e5c63012 	strb	r3, [r6, #18]
    32a0:	eaffffb2 	b	3170 <bmu_polling_loop+0x234>
    32a4:	e5d23031 	ldrb	r3, [r2, #49]	; 0x31
    32a8:	e3530000 	cmp	r3, #0
    32ac:	1affff98 	bne	3114 <bmu_polling_loop+0x1d8>
    32b0:	e3a03001 	mov	r3, #1
    32b4:	e5c23031 	strb	r3, [r2, #49]	; 0x31
    32b8:	ebfff6ef 	bl	e7c <discharge_end_process>
    32bc:	eaffff94 	b	3114 <bmu_polling_loop+0x1d8>
    32c0:	e5d63014 	ldrb	r3, [r6, #20]
    32c4:	e3530000 	cmp	r3, #0
    32c8:	1affff3d 	bne	2fc4 <bmu_polling_loop+0x88>
    32cc:	e5963004 	ldr	r3, [r6, #4]
    32d0:	e596200c 	ldr	r2, [r6, #12]
    32d4:	e5931010 	ldr	r1, [r3, #16]
    32d8:	e5920048 	ldr	r0, [r2, #72]	; 0x48
    32dc:	e1510000 	cmp	r1, r0
    32e0:	baffff39 	blt	2fcc <bmu_polling_loop+0x90>
    32e4:	e0801001 	add	r1, r0, r1
    32e8:	e5831010 	str	r1, [r3, #16]
    32ec:	e5963000 	ldr	r3, [r6]
    32f0:	e5933010 	ldr	r3, [r3, #16]
    32f4:	e5d3302c 	ldrb	r3, [r3, #44]	; 0x2c
    32f8:	e3530000 	cmp	r3, #0
    32fc:	0affff30 	beq	2fc4 <bmu_polling_loop+0x88>
    3300:	e59f09c8 	ldr	r0, [pc, #2504]	; 3cd0 <bmu_polling_loop+0xd94>
    3304:	ebfffffe 	bl	0 <printk>
    3308:	eaffff2d 	b	2fc4 <bmu_polling_loop+0x88>
    330c:	e597000c 	ldr	r0, [r7, #12]
    3310:	e308251f 	movw	r2, #34079	; 0x851f
    3314:	e5931024 	ldr	r1, [r3, #36]	; 0x24
    3318:	e34521eb 	movt	r2, #20971	; 0x51eb
    331c:	e590300c 	ldr	r3, [r0, #12]
    3320:	e0660001 	rsb	r0, r6, r1
    3324:	e0c2c392 	smull	ip, r2, r2, r3
    3328:	e1a03fc3 	asr	r3, r3, #31
    332c:	e0633342 	rsb	r3, r3, r2, asr #6
    3330:	e1500003 	cmp	r0, r3
    3334:	ca000002 	bgt	3344 <bmu_polling_loop+0x408>
    3338:	e0616006 	rsb	r6, r1, r6
    333c:	e1530006 	cmp	r3, r6
    3340:	aa000006 	bge	3360 <bmu_polling_loop+0x424>
    3344:	e5950010 	ldr	r0, [r5, #16]
    3348:	ebfff6ab 	bl	dfc <bmu_write_data>
    334c:	e5943000 	ldr	r3, [r4]
    3350:	e5933010 	ldr	r3, [r3, #16]
    3354:	e5d3302c 	ldrb	r3, [r3, #44]	; 0x2c
    3358:	e3530000 	cmp	r3, #0
    335c:	1a00017a 	bne	394c <bmu_polling_loop+0xa10>
    3360:	e3a00009 	mov	r0, #9
    3364:	e28d100f 	add	r1, sp, #15
    3368:	ebfff810 	bl	13b0 <afe_register_read_byte>
    336c:	e5dd200f 	ldrb	r2, [sp, #15]
    3370:	e7e03352 	ubfx	r3, r2, #6, #1
    3374:	e1933fa0 	orrs	r3, r3, r0, lsr #31
    3378:	0affffb6 	beq	3258 <bmu_polling_loop+0x31c>
    337c:	e1a01000 	mov	r1, r0
    3380:	e59f094c 	ldr	r0, [pc, #2380]	; 3cd4 <bmu_polling_loop+0xd98>
    3384:	ebfffffe 	bl	0 <printk>
    3388:	e5d53000 	ldrb	r3, [r5]
    338c:	e3530001 	cmp	r3, #1
    3390:	9a0003e2 	bls	4320 <bmu_polling_loop+0x13e4>
    3394:	e3a0102c 	mov	r1, #44	; 0x2c
    3398:	e3a00009 	mov	r0, #9
    339c:	ebfff82a 	bl	144c <afe_register_write_byte>
    33a0:	e59f0930 	ldr	r0, [pc, #2352]	; 3cd8 <bmu_polling_loop+0xd9c>
    33a4:	ebfffffe 	bl	0 <printk>
    33a8:	eaffffaa 	b	3258 <bmu_polling_loop+0x31c>
    33ac:	e5d41025 	ldrb	r1, [r4, #37]	; 0x25
    33b0:	e28d600e 	add	r6, sp, #14
    33b4:	e59f0920 	ldr	r0, [pc, #2336]	; 3cdc <bmu_polling_loop+0xda0>
    33b8:	ebfffffe 	bl	0 <printk>
    33bc:	e1a01006 	mov	r1, r6
    33c0:	e3a00009 	mov	r0, #9
    33c4:	ebfff7f9 	bl	13b0 <afe_register_read_byte>
    33c8:	e5dd200e 	ldrb	r2, [sp, #14]
    33cc:	e1a05000 	mov	r5, r0
    33d0:	e1a01000 	mov	r1, r0
    33d4:	e59f0904 	ldr	r0, [pc, #2308]	; 3ce0 <bmu_polling_loop+0xda4>
    33d8:	ebfffffe 	bl	0 <printk>
    33dc:	e5dd300e 	ldrb	r3, [sp, #14]
    33e0:	e7e03353 	ubfx	r3, r3, #6, #1
    33e4:	e1933fa5 	orrs	r3, r3, r5, lsr #31
    33e8:	059f59a4 	ldreq	r5, [pc, #2468]	; 3d94 <bmu_polling_loop+0xe58>
    33ec:	1a000207 	bne	3c10 <bmu_polling_loop+0xcd4>
    33f0:	e1a01006 	mov	r1, r6
    33f4:	e3a00009 	mov	r0, #9
    33f8:	ebfff7ec 	bl	13b0 <afe_register_read_byte>
    33fc:	e5dd200e 	ldrb	r2, [sp, #14]
    3400:	e1a01000 	mov	r1, r0
    3404:	e59f08d4 	ldr	r0, [pc, #2260]	; 3ce0 <bmu_polling_loop+0xda4>
    3408:	ebfffffe 	bl	0 <printk>
    340c:	e3a00010 	mov	r0, #16
    3410:	e28d1008 	add	r1, sp, #8
    3414:	ebfff326 	bl	b4 <afe_register_read_word>
    3418:	e3500000 	cmp	r0, #0
    341c:	ba000002 	blt	342c <bmu_polling_loop+0x4f0>
    3420:	e1dd30b8 	ldrh	r3, [sp, #8]
    3424:	e3130001 	tst	r3, #1
    3428:	1a000202 	bne	3c38 <bmu_polling_loop+0xcfc>
    342c:	e5940004 	ldr	r0, [r4, #4]
    3430:	e59f6968 	ldr	r6, [pc, #2408]	; 3da0 <bmu_polling_loop+0xe64>
    3434:	e280001c 	add	r0, r0, #28
    3438:	ebfff378 	bl	220 <afe_read_cell_temp>
    343c:	e5940004 	ldr	r0, [r4, #4]
    3440:	e280000c 	add	r0, r0, #12
    3444:	ebfff423 	bl	4d8 <afe_read_cell_volt>
    3448:	e5940004 	ldr	r0, [r4, #4]
    344c:	e2800010 	add	r0, r0, #16
    3450:	ebfff3e6 	bl	3f0 <afe_read_current>
    3454:	e5940004 	ldr	r0, [r4, #4]
    3458:	e2800004 	add	r0, r0, #4
    345c:	ebfff3b4 	bl	334 <afe_read_car>
    3460:	e5d43013 	ldrb	r3, [r4, #19]
    3464:	e3530000 	cmp	r3, #0
    3468:	0a000050 	beq	35b0 <bmu_polling_loop+0x674>
    346c:	e5963004 	ldr	r3, [r6, #4]
    3470:	e5950010 	ldr	r0, [r5, #16]
    3474:	e59f7918 	ldr	r7, [pc, #2328]	; 3d94 <bmu_polling_loop+0xe58>
    3478:	e5931024 	ldr	r1, [r3, #36]	; 0x24
    347c:	ebfff65e 	bl	dfc <bmu_write_data>
    3480:	e5950010 	ldr	r0, [r5, #16]
    3484:	ebfff63e 	bl	d84 <bmu_read_data>
    3488:	e5963004 	ldr	r3, [r6, #4]
    348c:	e5933024 	ldr	r3, [r3, #36]	; 0x24
    3490:	e1500003 	cmp	r0, r3
    3494:	0a00002b 	beq	3548 <bmu_polling_loop+0x60c>
    3498:	e5d43024 	ldrb	r3, [r4, #36]	; 0x24
    349c:	e3530000 	cmp	r3, #0
    34a0:	159f38f8 	ldrne	r3, [pc, #2296]	; 3da0 <bmu_polling_loop+0xe64>
    34a4:	13a02001 	movne	r2, #1
    34a8:	15c3202e 	strbne	r2, [r3, #46]	; 0x2e
    34ac:	eaffff69 	b	3258 <bmu_polling_loop+0x31c>
    34b0:	ebfff671 	bl	e7c <discharge_end_process>
    34b4:	eaffff1f 	b	3138 <bmu_polling_loop+0x1fc>
    34b8:	e5943000 	ldr	r3, [r4]
    34bc:	e5933010 	ldr	r3, [r3, #16]
    34c0:	e5931028 	ldr	r1, [r3, #40]	; 0x28
    34c4:	e3510000 	cmp	r1, #0
    34c8:	1a0000ee 	bne	3888 <bmu_polling_loop+0x94c>
    34cc:	e59f58c0 	ldr	r5, [pc, #2240]	; 3d94 <bmu_polling_loop+0xe58>
    34d0:	e1a02001 	mov	r2, r1
    34d4:	e5950024 	ldr	r0, [r5, #36]	; 0x24
    34d8:	ebfffffe 	bl	0 <sys_open>
    34dc:	e3500000 	cmp	r0, #0
    34e0:	ba0000f4 	blt	38b8 <bmu_polling_loop+0x97c>
    34e4:	e28d6008 	add	r6, sp, #8
    34e8:	ebfffffe 	bl	0 <sys_close>
    34ec:	e1a00006 	mov	r0, r6
    34f0:	ebfff316 	bl	150 <afe_read_board_offset>
    34f4:	e5950024 	ldr	r0, [r5, #36]	; 0x24
    34f8:	ebfff621 	bl	d84 <bmu_read_data>
    34fc:	e59d3008 	ldr	r3, [sp, #8]
    3500:	e0633000 	rsb	r3, r3, r0
    3504:	e2833002 	add	r3, r3, #2
    3508:	e3530004 	cmp	r3, #4
    350c:	8a00010c 	bhi	3944 <bmu_polling_loop+0xa08>
    3510:	e1a00006 	mov	r0, r6
    3514:	ebfff30d 	bl	150 <afe_read_board_offset>
    3518:	e59d3008 	ldr	r3, [sp, #8]
    351c:	e2433001 	sub	r3, r3, #1
    3520:	e3530009 	cmp	r3, #9
    3524:	8a00037a 	bhi	4314 <bmu_polling_loop+0x13d8>
    3528:	e1a00006 	mov	r0, r6
    352c:	ebfff307 	bl	150 <afe_read_board_offset>
    3530:	e59f07ac 	ldr	r0, [pc, #1964]	; 3ce4 <bmu_polling_loop+0xda8>
    3534:	e59d1008 	ldr	r1, [sp, #8]
    3538:	ebfffffe 	bl	0 <printk>
    353c:	e3a03000 	mov	r3, #0
    3540:	e5c4302e 	strb	r3, [r4, #46]	; 0x2e
    3544:	eafffe86 	b	2f64 <bmu_polling_loop+0x28>
    3548:	e596300c 	ldr	r3, [r6, #12]
    354c:	e5970008 	ldr	r0, [r7, #8]
    3550:	e593100c 	ldr	r1, [r3, #12]
    3554:	ebfff628 	bl	dfc <bmu_write_data>
    3558:	e5970008 	ldr	r0, [r7, #8]
    355c:	ebfff608 	bl	d84 <bmu_read_data>
    3560:	e596300c 	ldr	r3, [r6, #12]
    3564:	e593300c 	ldr	r3, [r3, #12]
    3568:	e1500003 	cmp	r0, r3
    356c:	1affffc9 	bne	3498 <bmu_polling_loop+0x55c>
    3570:	e3a01001 	mov	r1, #1
    3574:	e597000c 	ldr	r0, [r7, #12]
    3578:	ebfff61f 	bl	dfc <bmu_write_data>
    357c:	e597000c 	ldr	r0, [r7, #12]
    3580:	ebfff5ff 	bl	d84 <bmu_read_data>
    3584:	e3500001 	cmp	r0, #1
    3588:	e1a03000 	mov	r3, r0
    358c:	1affffc1 	bne	3498 <bmu_polling_loop+0x55c>
    3590:	e596200c 	ldr	r2, [r6, #12]
    3594:	e5c60024 	strb	r0, [r6, #36]	; 0x24
    3598:	e59f0748 	ldr	r0, [pc, #1864]	; 3ce8 <bmu_polling_loop+0xdac>
    359c:	e5c23059 	strb	r3, [r2, #89]	; 0x59
    35a0:	e5963004 	ldr	r3, [r6, #4]
    35a4:	e5932004 	ldr	r2, [r3, #4]
    35a8:	e5832020 	str	r2, [r3, #32]
    35ac:	ebfffffe 	bl	0 <printk>
    35b0:	e5950010 	ldr	r0, [r5, #16]
    35b4:	ebfff5f2 	bl	d84 <bmu_read_data>
    35b8:	e1a06000 	mov	r6, r0
    35bc:	e5950008 	ldr	r0, [r5, #8]
    35c0:	ebfff5ef 	bl	d84 <bmu_read_data>
    35c4:	e594700c 	ldr	r7, [r4, #12]
    35c8:	e1a08000 	mov	r8, r0
    35cc:	e595000c 	ldr	r0, [r5, #12]
    35d0:	ebfff5eb 	bl	d84 <bmu_read_data>
    35d4:	e1988006 	orrs	r8, r8, r6
    35d8:	e59f67c0 	ldr	r6, [pc, #1984]	; 3da0 <bmu_polling_loop+0xe64>
    35dc:	e5c70059 	strb	r0, [r7, #89]	; 0x59
    35e0:	5a0001ef 	bpl	3da4 <bmu_polling_loop+0xe68>
    35e4:	e5d63025 	ldrb	r3, [r6, #37]	; 0x25
    35e8:	e3530005 	cmp	r3, #5
    35ec:	9a0000ab 	bls	38a0 <bmu_polling_loop+0x964>
    35f0:	e59f06f4 	ldr	r0, [pc, #1780]	; 3cec <bmu_polling_loop+0xdb0>
    35f4:	e3a03000 	mov	r3, #0
    35f8:	e5c43025 	strb	r3, [r4, #37]	; 0x25
    35fc:	ebfffffe 	bl	0 <printk>
    3600:	e5942000 	ldr	r2, [r4]
    3604:	e3a01064 	mov	r1, #100	; 0x64
    3608:	e594300c 	ldr	r3, [r4, #12]
    360c:	e59f678c 	ldr	r6, [pc, #1932]	; 3da0 <bmu_polling_loop+0xe64>
    3610:	e5922010 	ldr	r2, [r2, #16]
    3614:	e5922018 	ldr	r2, [r2, #24]
    3618:	e583200c 	str	r2, [r3, #12]
    361c:	e594800c 	ldr	r8, [r4, #12]
    3620:	e5947004 	ldr	r7, [r4, #4]
    3624:	e598000c 	ldr	r0, [r8, #12]
    3628:	ebfffffe 	bl	0 <__aeabi_idiv>
    362c:	e5973004 	ldr	r3, [r7, #4]
    3630:	e1530000 	cmp	r3, r0
    3634:	ba00033d 	blt	4330 <bmu_polling_loop+0x13f4>
    3638:	e5982000 	ldr	r2, [r8]
    363c:	e2422005 	sub	r2, r2, #5
    3640:	e1530002 	cmp	r3, r2
    3644:	aa000339 	bge	4330 <bmu_polling_loop+0x13f4>
    3648:	e5873024 	str	r3, [r7, #36]	; 0x24
    364c:	e3a01064 	mov	r1, #100	; 0x64
    3650:	e8960088 	ldm	r6, {r3, r7}
    3654:	e5933010 	ldr	r3, [r3, #16]
    3658:	e5978024 	ldr	r8, [r7, #36]	; 0x24
    365c:	e5930018 	ldr	r0, [r3, #24]
    3660:	ebfffffe 	bl	0 <__aeabi_idiv>
    3664:	e596300c 	ldr	r3, [r6, #12]
    3668:	e593300c 	ldr	r3, [r3, #12]
    366c:	e0803003 	add	r3, r0, r3
    3670:	e1580003 	cmp	r8, r3
    3674:	da000012 	ble	36c4 <bmu_polling_loop+0x788>
    3678:	e1a01008 	mov	r1, r8
    367c:	e59f0718 	ldr	r0, [pc, #1816]	; 3d9c <bmu_polling_loop+0xe60>
    3680:	ebfffffe 	bl	0 <printk>
    3684:	e5963000 	ldr	r3, [r6]
    3688:	e3a01064 	mov	r1, #100	; 0x64
    368c:	e5967004 	ldr	r7, [r6, #4]
    3690:	e5933010 	ldr	r3, [r3, #16]
    3694:	e5930018 	ldr	r0, [r3, #24]
    3698:	ebfffffe 	bl	0 <__aeabi_idiv>
    369c:	e596300c 	ldr	r3, [r6, #12]
    36a0:	e593300c 	ldr	r3, [r3, #12]
    36a4:	e0803003 	add	r3, r0, r3
    36a8:	e5873024 	str	r3, [r7, #36]	; 0x24
    36ac:	e5963004 	ldr	r3, [r6, #4]
    36b0:	e5950010 	ldr	r0, [r5, #16]
    36b4:	e5931024 	ldr	r1, [r3, #36]	; 0x24
    36b8:	ebfff5cf 	bl	dfc <bmu_write_data>
    36bc:	e5967004 	ldr	r7, [r6, #4]
    36c0:	e5978024 	ldr	r8, [r7, #36]	; 0x24
    36c4:	e3a03064 	mov	r3, #100	; 0x64
    36c8:	e0080893 	mul	r8, r3, r8
    36cc:	e5878008 	str	r8, [r7, #8]
    36d0:	e594300c 	ldr	r3, [r4, #12]
    36d4:	e5946004 	ldr	r6, [r4, #4]
    36d8:	e593100c 	ldr	r1, [r3, #12]
    36dc:	e5960008 	ldr	r0, [r6, #8]
    36e0:	ebfffffe 	bl	0 <__aeabi_idiv>
    36e4:	e5860008 	str	r0, [r6, #8]
    36e8:	e5942004 	ldr	r2, [r4, #4]
    36ec:	e594300c 	ldr	r3, [r4, #12]
    36f0:	e59f66a8 	ldr	r6, [pc, #1704]	; 3da0 <bmu_polling_loop+0xe64>
    36f4:	e5922024 	ldr	r2, [r2, #36]	; 0x24
    36f8:	e59f7694 	ldr	r7, [pc, #1684]	; 3d94 <bmu_polling_loop+0xe58>
    36fc:	e5832008 	str	r2, [r3, #8]
    3700:	e8940006 	ldm	r4, {r1, r2}
    3704:	e594300c 	ldr	r3, [r4, #12]
    3708:	e5911010 	ldr	r1, [r1, #16]
    370c:	e5922024 	ldr	r2, [r2, #36]	; 0x24
    3710:	e5911018 	ldr	r1, [r1, #24]
    3714:	e0622001 	rsb	r2, r2, r1
    3718:	e5832010 	str	r2, [r3, #16]
    371c:	e5943004 	ldr	r3, [r4, #4]
    3720:	e5950010 	ldr	r0, [r5, #16]
    3724:	e5931024 	ldr	r1, [r3, #36]	; 0x24
    3728:	ebfff5b3 	bl	dfc <bmu_write_data>
    372c:	e5950010 	ldr	r0, [r5, #16]
    3730:	ebfff593 	bl	d84 <bmu_read_data>
    3734:	e5943004 	ldr	r3, [r4, #4]
    3738:	e5933024 	ldr	r3, [r3, #36]	; 0x24
    373c:	e1500003 	cmp	r0, r3
    3740:	1affff54 	bne	3498 <bmu_polling_loop+0x55c>
    3744:	e5963000 	ldr	r3, [r6]
    3748:	e5970008 	ldr	r0, [r7, #8]
    374c:	e5933010 	ldr	r3, [r3, #16]
    3750:	e5931018 	ldr	r1, [r3, #24]
    3754:	ebfff5a8 	bl	dfc <bmu_write_data>
    3758:	e5970008 	ldr	r0, [r7, #8]
    375c:	ebfff588 	bl	d84 <bmu_read_data>
    3760:	e5963000 	ldr	r3, [r6]
    3764:	e5933010 	ldr	r3, [r3, #16]
    3768:	e5933018 	ldr	r3, [r3, #24]
    376c:	e1500003 	cmp	r0, r3
    3770:	1affff48 	bne	3498 <bmu_polling_loop+0x55c>
    3774:	e3a01001 	mov	r1, #1
    3778:	e597000c 	ldr	r0, [r7, #12]
    377c:	ebfff59e 	bl	dfc <bmu_write_data>
    3780:	e597000c 	ldr	r0, [r7, #12]
    3784:	ebfff57e 	bl	d84 <bmu_read_data>
    3788:	e3500001 	cmp	r0, #1
    378c:	e1a05000 	mov	r5, r0
    3790:	1affff40 	bne	3498 <bmu_polling_loop+0x55c>
    3794:	e5963004 	ldr	r3, [r6, #4]
    3798:	e3a01064 	mov	r1, #100	; 0x64
    379c:	e5932024 	ldr	r2, [r3, #36]	; 0x24
    37a0:	e0020291 	mul	r2, r1, r2
    37a4:	e5832008 	str	r2, [r3, #8]
    37a8:	e596300c 	ldr	r3, [r6, #12]
    37ac:	e5968004 	ldr	r8, [r6, #4]
    37b0:	e593100c 	ldr	r1, [r3, #12]
    37b4:	e5980008 	ldr	r0, [r8, #8]
    37b8:	ebfffffe 	bl	0 <__aeabi_idiv>
    37bc:	e5880008 	str	r0, [r8, #8]
    37c0:	e5962004 	ldr	r2, [r6, #4]
    37c4:	e5d73000 	ldrb	r3, [r7]
    37c8:	e5c65024 	strb	r5, [r6, #36]	; 0x24
    37cc:	e592100c 	ldr	r1, [r2, #12]
    37d0:	e59f0594 	ldr	r0, [pc, #1428]	; 3d6c <bmu_polling_loop+0xe30>
    37d4:	e0010391 	mul	r1, r1, r3
    37d8:	ebfffffe 	bl	0 <printk>
    37dc:	e5963004 	ldr	r3, [r6, #4]
    37e0:	e59f0588 	ldr	r0, [pc, #1416]	; 3d70 <bmu_polling_loop+0xe34>
    37e4:	e5931008 	ldr	r1, [r3, #8]
    37e8:	ebfffffe 	bl	0 <printk>
    37ec:	e5963004 	ldr	r3, [r6, #4]
    37f0:	e59f057c 	ldr	r0, [pc, #1404]	; 3d74 <bmu_polling_loop+0xe38>
    37f4:	e5931024 	ldr	r1, [r3, #36]	; 0x24
    37f8:	ebfffffe 	bl	0 <printk>
    37fc:	e596300c 	ldr	r3, [r6, #12]
    3800:	e59f04e8 	ldr	r0, [pc, #1256]	; 3cf0 <bmu_polling_loop+0xdb4>
    3804:	e5931008 	ldr	r1, [r3, #8]
    3808:	ebfffffe 	bl	0 <printk>
    380c:	e596300c 	ldr	r3, [r6, #12]
    3810:	e59f0564 	ldr	r0, [pc, #1380]	; 3d7c <bmu_polling_loop+0xe40>
    3814:	e593100c 	ldr	r1, [r3, #12]
    3818:	ebfffffe 	bl	0 <printk>
    381c:	e5963004 	ldr	r3, [r6, #4]
    3820:	e59f0558 	ldr	r0, [pc, #1368]	; 3d80 <bmu_polling_loop+0xe44>
    3824:	e5931004 	ldr	r1, [r3, #4]
    3828:	ebfffffe 	bl	0 <printk>
    382c:	e5963004 	ldr	r3, [r6, #4]
    3830:	e59f054c 	ldr	r0, [pc, #1356]	; 3d84 <bmu_polling_loop+0xe48>
    3834:	e5931010 	ldr	r1, [r3, #16]
    3838:	ebfffffe 	bl	0 <printk>
    383c:	e5963004 	ldr	r3, [r6, #4]
    3840:	e5933008 	ldr	r3, [r3, #8]
    3844:	e3530001 	cmp	r3, #1
    3848:	da0002a3 	ble	42dc <bmu_polling_loop+0x13a0>
    384c:	e3530063 	cmp	r3, #99	; 0x63
    3850:	da00000a 	ble	3880 <bmu_polling_loop+0x944>
    3854:	e594300c 	ldr	r3, [r4, #12]
    3858:	e3a02001 	mov	r2, #1
    385c:	e5c32005 	strb	r2, [r3, #5]
    3860:	e2822063 	add	r2, r2, #99	; 0x63
    3864:	e5943004 	ldr	r3, [r4, #4]
    3868:	e5832008 	str	r2, [r3, #8]
    386c:	e3a02000 	mov	r2, #0
    3870:	e594300c 	ldr	r3, [r4, #12]
    3874:	e5832010 	str	r2, [r3, #16]
    3878:	e5943004 	ldr	r3, [r4, #4]
    387c:	e5933008 	ldr	r3, [r3, #8]
    3880:	e5843028 	str	r3, [r4, #40]	; 0x28
    3884:	eaffff03 	b	3498 <bmu_polling_loop+0x55c>
    3888:	e1a00001 	mov	r0, r1
    388c:	e59f5500 	ldr	r5, [pc, #1280]	; 3d94 <bmu_polling_loop+0xe58>
    3890:	ebfff42e 	bl	950 <afe_write_board_offset>
    3894:	e3a03000 	mov	r3, #0
    3898:	e5c4302e 	strb	r3, [r4, #46]	; 0x2e
    389c:	eafffdb0 	b	2f64 <bmu_polling_loop+0x28>
    38a0:	e2833001 	add	r3, r3, #1
    38a4:	e6ef3073 	uxtb	r3, r3
    38a8:	e5c63025 	strb	r3, [r6, #37]	; 0x25
    38ac:	e3530006 	cmp	r3, #6
    38b0:	1afffef8 	bne	3498 <bmu_polling_loop+0x55c>
    38b4:	eaffff4d 	b	35f0 <bmu_polling_loop+0x6b4>
    38b8:	e5d4302f 	ldrb	r3, [r4, #47]	; 0x2f
    38bc:	e3530002 	cmp	r3, #2
    38c0:	92833001 	addls	r3, r3, #1
    38c4:	95c4302f 	strbls	r3, [r4, #47]	; 0x2f
    38c8:	9afffda5 	bls	2f64 <bmu_polling_loop+0x28>
    38cc:	e28d6008 	add	r6, sp, #8
    38d0:	e1a00006 	mov	r0, r6
    38d4:	ebfff21d 	bl	150 <afe_read_board_offset>
    38d8:	e59d3008 	ldr	r3, [sp, #8]
    38dc:	e2433001 	sub	r3, r3, #1
    38e0:	e3530009 	cmp	r3, #9
    38e4:	e1a07000 	mov	r7, r0
    38e8:	8a000274 	bhi	42c0 <bmu_polling_loop+0x1384>
    38ec:	e3570000 	cmp	r7, #0
    38f0:	baffff06 	blt	3510 <bmu_polling_loop+0x5d4>
    38f4:	e59d1008 	ldr	r1, [sp, #8]
    38f8:	e2413001 	sub	r3, r1, #1
    38fc:	e3530008 	cmp	r3, #8
    3900:	8affff02 	bhi	3510 <bmu_polling_loop+0x5d4>
    3904:	e5950024 	ldr	r0, [r5, #36]	; 0x24
    3908:	ebfff53b 	bl	dfc <bmu_write_data>
    390c:	e3500000 	cmp	r0, #0
    3910:	aa000001 	bge	391c <bmu_polling_loop+0x9e0>
    3914:	e59f03d8 	ldr	r0, [pc, #984]	; 3cf4 <bmu_polling_loop+0xdb8>
    3918:	ebfffffe 	bl	0 <printk>
    391c:	e5950024 	ldr	r0, [r5, #36]	; 0x24
    3920:	ebfff517 	bl	d84 <bmu_read_data>
    3924:	e1a03000 	mov	r3, r0
    3928:	e1a01000 	mov	r1, r0
    392c:	e59f03c4 	ldr	r0, [pc, #964]	; 3cf8 <bmu_polling_loop+0xdbc>
    3930:	e58d3008 	str	r3, [sp, #8]
    3934:	ebfffffe 	bl	0 <printk>
    3938:	e3a03001 	mov	r3, #1
    393c:	e5c43030 	strb	r3, [r4, #48]	; 0x30
    3940:	eafffef2 	b	3510 <bmu_polling_loop+0x5d4>
    3944:	ebfff401 	bl	950 <afe_write_board_offset>
    3948:	eafffef0 	b	3510 <bmu_polling_loop+0x5d4>
    394c:	e59f344c 	ldr	r3, [pc, #1100]	; 3da0 <bmu_polling_loop+0xe64>
    3950:	e59f03a4 	ldr	r0, [pc, #932]	; 3cfc <bmu_polling_loop+0xdc0>
    3954:	e5933004 	ldr	r3, [r3, #4]
    3958:	e5931024 	ldr	r1, [r3, #36]	; 0x24
    395c:	ebfffffe 	bl	0 <printk>
    3960:	eafffe7e 	b	3360 <bmu_polling_loop+0x424>
    3964:	e59f0394 	ldr	r0, [pc, #916]	; 3d00 <bmu_polling_loop+0xdc4>
    3968:	ebfffffe 	bl	0 <printk>
    396c:	e3a03001 	mov	r3, #1
    3970:	e5c63011 	strb	r3, [r6, #17]
    3974:	ebfff608 	bl	119c <charge_end_process>
    3978:	eafffdbb 	b	306c <bmu_polling_loop+0x130>
    397c:	e5943000 	ldr	r3, [r4]
    3980:	e3a00050 	mov	r0, #80	; 0x50
    3984:	e3a01064 	mov	r1, #100	; 0x64
    3988:	e5933010 	ldr	r3, [r3, #16]
    398c:	e5933018 	ldr	r3, [r3, #24]
    3990:	e0000390 	mul	r0, r0, r3
    3994:	ebfffffe 	bl	0 <__aeabi_idiv>
    3998:	e1a03000 	mov	r3, r0
    399c:	e587300c 	str	r3, [r7, #12]
    39a0:	e594300c 	ldr	r3, [r4, #12]
    39a4:	e5950008 	ldr	r0, [r5, #8]
    39a8:	e593100c 	ldr	r1, [r3, #12]
    39ac:	ebfff512 	bl	dfc <bmu_write_data>
    39b0:	e594300c 	ldr	r3, [r4, #12]
    39b4:	e59f0348 	ldr	r0, [pc, #840]	; 3d04 <bmu_polling_loop+0xdc8>
    39b8:	e593100c 	ldr	r1, [r3, #12]
    39bc:	ebfffffe 	bl	0 <printk>
    39c0:	e5943000 	ldr	r3, [r4]
    39c4:	e593c010 	ldr	ip, [r3, #16]
    39c8:	eafffe0e 	b	3208 <bmu_polling_loop+0x2cc>
    39cc:	e587100c 	str	r1, [r7, #12]
    39d0:	e594300c 	ldr	r3, [r4, #12]
    39d4:	e5950008 	ldr	r0, [r5, #8]
    39d8:	e593100c 	ldr	r1, [r3, #12]
    39dc:	ebfff506 	bl	dfc <bmu_write_data>
    39e0:	e594300c 	ldr	r3, [r4, #12]
    39e4:	e59f0318 	ldr	r0, [pc, #792]	; 3d04 <bmu_polling_loop+0xdc8>
    39e8:	e593100c 	ldr	r1, [r3, #12]
    39ec:	ebfffffe 	bl	0 <printk>
    39f0:	e5943000 	ldr	r3, [r4]
    39f4:	e594700c 	ldr	r7, [r4, #12]
    39f8:	e593c010 	ldr	ip, [r3, #16]
    39fc:	e597200c 	ldr	r2, [r7, #12]
    3a00:	e59c3018 	ldr	r3, [ip, #24]
    3a04:	eafffdf4 	b	31dc <bmu_polling_loop+0x2a0>
    3a08:	e59f3390 	ldr	r3, [pc, #912]	; 3da0 <bmu_polling_loop+0xe64>
    3a0c:	e59f02f4 	ldr	r0, [pc, #756]	; 3d08 <bmu_polling_loop+0xdcc>
    3a10:	e5932004 	ldr	r2, [r3, #4]
    3a14:	e5d53000 	ldrb	r3, [r5]
    3a18:	e5921010 	ldr	r1, [r2, #16]
    3a1c:	e58d1000 	str	r1, [sp]
    3a20:	e592100c 	ldr	r1, [r2, #12]
    3a24:	e0030391 	mul	r3, r1, r3
    3a28:	e58d3004 	str	r3, [sp, #4]
    3a2c:	e5923020 	ldr	r3, [r2, #32]
    3a30:	e5921024 	ldr	r1, [r2, #36]	; 0x24
    3a34:	e5922004 	ldr	r2, [r2, #4]
    3a38:	ebfffffe 	bl	0 <printk>
    3a3c:	eafffd5c 	b	2fb4 <bmu_polling_loop+0x78>
    3a40:	e59f0354 	ldr	r0, [pc, #852]	; 3d9c <bmu_polling_loop+0xe60>
    3a44:	ebfffffe 	bl	0 <printk>
    3a48:	e5983000 	ldr	r3, [r8]
    3a4c:	e3a01064 	mov	r1, #100	; 0x64
    3a50:	e5987004 	ldr	r7, [r8, #4]
    3a54:	e5933010 	ldr	r3, [r3, #16]
    3a58:	e5930018 	ldr	r0, [r3, #24]
    3a5c:	ebfffffe 	bl	0 <__aeabi_idiv>
    3a60:	e598300c 	ldr	r3, [r8, #12]
    3a64:	e593300c 	ldr	r3, [r3, #12]
    3a68:	e0803003 	add	r3, r0, r3
    3a6c:	e5873024 	str	r3, [r7, #36]	; 0x24
    3a70:	e5983000 	ldr	r3, [r8]
    3a74:	e598700c 	ldr	r7, [r8, #12]
    3a78:	e593c010 	ldr	ip, [r3, #16]
    3a7c:	e597200c 	ldr	r2, [r7, #12]
    3a80:	e59c3018 	ldr	r3, [ip, #24]
    3a84:	eafffdcb 	b	31b8 <bmu_polling_loop+0x27c>
    3a88:	e59f027c 	ldr	r0, [pc, #636]	; 3d0c <bmu_polling_loop+0xdd0>
    3a8c:	ebfffffe 	bl	0 <printk>
    3a90:	e59f1278 	ldr	r1, [pc, #632]	; 3d10 <bmu_polling_loop+0xdd4>
    3a94:	e59f0278 	ldr	r0, [pc, #632]	; 3d14 <bmu_polling_loop+0xdd8>
    3a98:	ebfffffe 	bl	0 <printk>
    3a9c:	e596300c 	ldr	r3, [r6, #12]
    3aa0:	e59f0270 	ldr	r0, [pc, #624]	; 3d18 <bmu_polling_loop+0xddc>
    3aa4:	e5d31006 	ldrb	r1, [r3, #6]
    3aa8:	ebfffffe 	bl	0 <printk>
    3aac:	e596300c 	ldr	r3, [r6, #12]
    3ab0:	e59f0264 	ldr	r0, [pc, #612]	; 3d1c <bmu_polling_loop+0xde0>
    3ab4:	e5d31007 	ldrb	r1, [r3, #7]
    3ab8:	ebfffffe 	bl	0 <printk>
    3abc:	e5961004 	ldr	r1, [r6, #4]
    3ac0:	e5d53000 	ldrb	r3, [r5]
    3ac4:	e596200c 	ldr	r2, [r6, #12]
    3ac8:	e591100c 	ldr	r1, [r1, #12]
    3acc:	e59f024c 	ldr	r0, [pc, #588]	; 3d20 <bmu_polling_loop+0xde4>
    3ad0:	e5922018 	ldr	r2, [r2, #24]
    3ad4:	e0010391 	mul	r1, r1, r3
    3ad8:	ebfffffe 	bl	0 <printk>
    3adc:	e5962004 	ldr	r2, [r6, #4]
    3ae0:	e596300c 	ldr	r3, [r6, #12]
    3ae4:	e59f0238 	ldr	r0, [pc, #568]	; 3d24 <bmu_polling_loop+0xde8>
    3ae8:	e5921008 	ldr	r1, [r2, #8]
    3aec:	e5932018 	ldr	r2, [r3, #24]
    3af0:	ebfffffe 	bl	0 <printk>
    3af4:	e5963004 	ldr	r3, [r6, #4]
    3af8:	e59f0228 	ldr	r0, [pc, #552]	; 3d28 <bmu_polling_loop+0xdec>
    3afc:	e5931024 	ldr	r1, [r3, #36]	; 0x24
    3b00:	ebfffffe 	bl	0 <printk>
    3b04:	e596300c 	ldr	r3, [r6, #12]
    3b08:	e59f021c 	ldr	r0, [pc, #540]	; 3d2c <bmu_polling_loop+0xdf0>
    3b0c:	e5931008 	ldr	r1, [r3, #8]
    3b10:	ebfffffe 	bl	0 <printk>
    3b14:	e596300c 	ldr	r3, [r6, #12]
    3b18:	e59f0210 	ldr	r0, [pc, #528]	; 3d30 <bmu_polling_loop+0xdf4>
    3b1c:	e5931010 	ldr	r1, [r3, #16]
    3b20:	ebfffffe 	bl	0 <printk>
    3b24:	e596300c 	ldr	r3, [r6, #12]
    3b28:	e59f024c 	ldr	r0, [pc, #588]	; 3d7c <bmu_polling_loop+0xe40>
    3b2c:	e593100c 	ldr	r1, [r3, #12]
    3b30:	ebfffffe 	bl	0 <printk>
    3b34:	e5963004 	ldr	r3, [r6, #4]
    3b38:	e59f01f4 	ldr	r0, [pc, #500]	; 3d34 <bmu_polling_loop+0xdf8>
    3b3c:	e5931004 	ldr	r1, [r3, #4]
    3b40:	ebfffffe 	bl	0 <printk>
    3b44:	e5962004 	ldr	r2, [r6, #4]
    3b48:	e596300c 	ldr	r3, [r6, #12]
    3b4c:	e59f01e4 	ldr	r0, [pc, #484]	; 3d38 <bmu_polling_loop+0xdfc>
    3b50:	e5921010 	ldr	r1, [r2, #16]
    3b54:	e5932018 	ldr	r2, [r3, #24]
    3b58:	ebfffffe 	bl	0 <printk>
    3b5c:	e5962004 	ldr	r2, [r6, #4]
    3b60:	e596300c 	ldr	r3, [r6, #12]
    3b64:	e59f01d0 	ldr	r0, [pc, #464]	; 3d3c <bmu_polling_loop+0xe00>
    3b68:	e592101c 	ldr	r1, [r2, #28]
    3b6c:	e5932018 	ldr	r2, [r3, #24]
    3b70:	ebfffffe 	bl	0 <printk>
    3b74:	e5963004 	ldr	r3, [r6, #4]
    3b78:	e59f01c0 	ldr	r0, [pc, #448]	; 3d40 <bmu_polling_loop+0xe04>
    3b7c:	e5931028 	ldr	r1, [r3, #40]	; 0x28
    3b80:	ebfffffe 	bl	0 <printk>
    3b84:	e5d61012 	ldrb	r1, [r6, #18]
    3b88:	e59f01b4 	ldr	r0, [pc, #436]	; 3d44 <bmu_polling_loop+0xe08>
    3b8c:	ebfffffe 	bl	0 <printk>
    3b90:	e596300c 	ldr	r3, [r6, #12]
    3b94:	e59f01ac 	ldr	r0, [pc, #428]	; 3d48 <bmu_polling_loop+0xe0c>
    3b98:	e5d31005 	ldrb	r1, [r3, #5]
    3b9c:	ebfffffe 	bl	0 <printk>
    3ba0:	e5d61011 	ldrb	r1, [r6, #17]
    3ba4:	e59f01a0 	ldr	r0, [pc, #416]	; 3d4c <bmu_polling_loop+0xe10>
    3ba8:	ebfffffe 	bl	0 <printk>
    3bac:	e596300c 	ldr	r3, [r6, #12]
    3bb0:	e59f0198 	ldr	r0, [pc, #408]	; 3d50 <bmu_polling_loop+0xe14>
    3bb4:	e5d31004 	ldrb	r1, [r3, #4]
    3bb8:	ebfffffe 	bl	0 <printk>
    3bbc:	e59f0148 	ldr	r0, [pc, #328]	; 3d0c <bmu_polling_loop+0xdd0>
    3bc0:	ebfffffe 	bl	0 <printk>
    3bc4:	eafffd65 	b	3160 <bmu_polling_loop+0x224>
    3bc8:	e1a01006 	mov	r1, r6
    3bcc:	e59f0180 	ldr	r0, [pc, #384]	; 3d54 <bmu_polling_loop+0xe18>
    3bd0:	ebfffffe 	bl	0 <printk>
    3bd4:	eafffd8e 	b	3214 <bmu_polling_loop+0x2d8>
    3bd8:	e59f31c0 	ldr	r3, [pc, #448]	; 3da0 <bmu_polling_loop+0xe64>
    3bdc:	e59f0174 	ldr	r0, [pc, #372]	; 3d58 <bmu_polling_loop+0xe1c>
    3be0:	e5932004 	ldr	r2, [r3, #4]
    3be4:	e5d53000 	ldrb	r3, [r5]
    3be8:	e5921010 	ldr	r1, [r2, #16]
    3bec:	e58d1000 	str	r1, [sp]
    3bf0:	e592100c 	ldr	r1, [r2, #12]
    3bf4:	e0030391 	mul	r3, r1, r3
    3bf8:	e58d3004 	str	r3, [sp, #4]
    3bfc:	e5923020 	ldr	r3, [r2, #32]
    3c00:	e5921024 	ldr	r1, [r2, #36]	; 0x24
    3c04:	e5922004 	ldr	r2, [r2, #4]
    3c08:	ebfffffe 	bl	0 <printk>
    3c0c:	eafffd0d 	b	3048 <bmu_polling_loop+0x10c>
    3c10:	e59f517c 	ldr	r5, [pc, #380]	; 3d94 <bmu_polling_loop+0xe58>
    3c14:	e5d53000 	ldrb	r3, [r5]
    3c18:	e3530001 	cmp	r3, #1
    3c1c:	9a0001aa 	bls	42cc <bmu_polling_loop+0x1390>
    3c20:	e3a0102c 	mov	r1, #44	; 0x2c
    3c24:	e3a00009 	mov	r0, #9
    3c28:	ebfff607 	bl	144c <afe_register_write_byte>
    3c2c:	e59f00a4 	ldr	r0, [pc, #164]	; 3cd8 <bmu_polling_loop+0xd9c>
    3c30:	ebfffffe 	bl	0 <printk>
    3c34:	eafffded 	b	33f0 <bmu_polling_loop+0x4b4>
    3c38:	e59f011c 	ldr	r0, [pc, #284]	; 3d5c <bmu_polling_loop+0xe20>
    3c3c:	ebfffffe 	bl	0 <printk>
    3c40:	eafffdf9 	b	342c <bmu_polling_loop+0x4f0>
    3c44:	e3a00f7d 	mov	r0, #500	; 0x1f4
    3c48:	ebfffffe 	bl	0 <msleep>
    3c4c:	e5960004 	ldr	r0, [r6, #4]
    3c50:	e2800010 	add	r0, r0, #16
    3c54:	ebfff1e5 	bl	3f0 <afe_read_current>
    3c58:	e5960004 	ldr	r0, [r6, #4]
    3c5c:	e280000c 	add	r0, r0, #12
    3c60:	ebfff21c 	bl	4d8 <afe_read_cell_volt>
    3c64:	e5963004 	ldr	r3, [r6, #4]
    3c68:	e59f00f0 	ldr	r0, [pc, #240]	; 3d60 <bmu_polling_loop+0xe24>
    3c6c:	e5931010 	ldr	r1, [r3, #16]
    3c70:	ebfffffe 	bl	0 <printk>
    3c74:	e896000c 	ldm	r6, {r2, r3}
    3c78:	e5922010 	ldr	r2, [r2, #16]
    3c7c:	e5931010 	ldr	r1, [r3, #16]
    3c80:	e5920020 	ldr	r0, [r2, #32]
    3c84:	e1510000 	cmp	r1, r0
    3c88:	cafffd79 	bgt	3274 <bmu_polling_loop+0x338>
    3c8c:	e596000c 	ldr	r0, [r6, #12]
    3c90:	e5900048 	ldr	r0, [r0, #72]	; 0x48
    3c94:	e1510000 	cmp	r1, r0
    3c98:	bafffd75 	blt	3274 <bmu_polling_loop+0x338>
    3c9c:	e592201c 	ldr	r2, [r2, #28]
    3ca0:	e593100c 	ldr	r1, [r3, #12]
    3ca4:	e2422096 	sub	r2, r2, #150	; 0x96
    3ca8:	e1510002 	cmp	r1, r2
    3cac:	dafffd70 	ble	3274 <bmu_polling_loop+0x338>
    3cb0:	e5933008 	ldr	r3, [r3, #8]
    3cb4:	e3530063 	cmp	r3, #99	; 0x63
    3cb8:	cafffd6d 	bgt	3274 <bmu_polling_loop+0x338>
    3cbc:	ebfff536 	bl	119c <charge_end_process>
    3cc0:	e59f009c 	ldr	r0, [pc, #156]	; 3d64 <bmu_polling_loop+0xe28>
    3cc4:	ebfffffe 	bl	0 <printk>
    3cc8:	eafffd69 	b	3274 <bmu_polling_loop+0x338>
    3ccc:	000011cc 	andeq	r1, r0, ip, asr #3
    3cd0:	00000f38 	andeq	r0, r0, r8, lsr pc
    3cd4:	0000126c 	andeq	r1, r0, ip, ror #4
    3cd8:	00000324 	andeq	r0, r0, r4, lsr #6
    3cdc:	00000d5c 	andeq	r0, r0, ip, asr sp
    3ce0:	00000d78 	andeq	r0, r0, r8, ror sp
    3ce4:	00000788 	andeq	r0, r0, r8, lsl #15
    3ce8:	00000dcc 	andeq	r0, r0, ip, asr #27
    3cec:	00000dec 	andeq	r0, r0, ip, ror #27
    3cf0:	00000e30 	andeq	r0, r0, r0, lsr lr
    3cf4:	00000ec4 	andeq	r0, r0, r4, asr #29
    3cf8:	00000ee4 	andeq	r0, r0, r4, ror #29
    3cfc:	00001248 	andeq	r1, r0, r8, asr #4
    3d00:	00000f80 	andeq	r0, r0, r0, lsl #31
    3d04:	000011e4 	andeq	r1, r0, r4, ror #3
    3d08:	00000f04 	andeq	r0, r0, r4, lsl #30
    3d0c:	00000a94 	muleq	r0, r4, sl
    3d10:	00000660 	andeq	r0, r0, r0, ror #12
    3d14:	00000fb4 	undefined instruction 0x00000fb4
    3d18:	00000fc8 	andeq	r0, r0, r8, asr #31
    3d1c:	00000fe8 	andeq	r0, r0, r8, ror #31
    3d20:	0000100c 	andeq	r1, r0, ip
    3d24:	0000102c 	andeq	r1, r0, ip, lsr #32
    3d28:	0000104c 	andeq	r1, r0, ip, asr #32
    3d2c:	0000106c 	andeq	r1, r0, ip, rrx
    3d30:	00001080 	andeq	r1, r0, r0, lsl #1
    3d34:	00001094 	muleq	r0, r4, r0
    3d38:	000010b0 	strheq	r1, [r0], -r0
    3d3c:	000010d0 	ldrdeq	r1, [r0], -r0
    3d40:	000010f4 	strdeq	r1, [r0], -r4
    3d44:	0000111c 	andeq	r1, r0, ip, lsl r1
    3d48:	00001134 	andeq	r1, r0, r4, lsr r1
    3d4c:	00001154 	andeq	r1, r0, r4, asr r1
    3d50:	0000116c 	andeq	r1, r0, ip, ror #2
    3d54:	000011f8 	strdeq	r1, [r0], -r8
    3d58:	00000f48 	andeq	r0, r0, r8, asr #30
    3d5c:	00000da8 	andeq	r0, r0, r8, lsr #27
    3d60:	00001190 	muleq	r0, r0, r1
    3d64:	000011ac 	andeq	r1, r0, ip, lsr #3
    3d68:	00000e54 	andeq	r0, r0, r4, asr lr
    3d6c:	00000acc 	andeq	r0, r0, ip, asr #21
    3d70:	00000aec 	andeq	r0, r0, ip, ror #21
    3d74:	00000b0c 	andeq	r0, r0, ip, lsl #22
    3d78:	00000ea4 	andeq	r0, r0, r4, lsr #29
    3d7c:	00000e44 	andeq	r0, r0, r4, asr #28
    3d80:	00000b2c 	andeq	r0, r0, ip, lsr #22
    3d84:	00000b48 	andeq	r0, r0, r8, asr #22
    3d88:	00000f98 	muleq	r0, r8, pc
    3d8c:	00001220 	andeq	r1, r0, r0, lsr #4
    3d90:	00000e90 	muleq	r0, r0, lr
    3d94:	00000000 	andeq	r0, r0, r0
    3d98:	00000e7c 	andeq	r0, r0, ip, ror lr
    3d9c:	00000e18 	andeq	r0, r0, r8, lsl lr
    3da0:	00000000 	andeq	r0, r0, r0
    3da4:	e51f3018 	ldr	r3, [pc, #-24]	; 3d94 <bmu_polling_loop+0xe58>
    3da8:	e5930010 	ldr	r0, [r3, #16]
    3dac:	ebfff3f4 	bl	d84 <bmu_read_data>
    3db0:	e1a07000 	mov	r7, r0
    3db4:	e1a01000 	mov	r1, r0
    3db8:	e51f0058 	ldr	r0, [pc, #-88]	; 3d68 <bmu_polling_loop+0xe2c>
    3dbc:	ebfffffe 	bl	0 <printk>
    3dc0:	e5963004 	ldr	r3, [r6, #4]
    3dc4:	e5837024 	str	r7, [r3, #36]	; 0x24
    3dc8:	e5960004 	ldr	r0, [r6, #4]
    3dcc:	e5903024 	ldr	r3, [r0, #36]	; 0x24
    3dd0:	e3530000 	cmp	r3, #0
    3dd4:	da000007 	ble	3df8 <bmu_polling_loop+0xebc>
    3dd8:	e5962000 	ldr	r2, [r6]
    3ddc:	e3a01003 	mov	r1, #3
    3de0:	e5922010 	ldr	r2, [r2, #16]
    3de4:	e5922018 	ldr	r2, [r2, #24]
    3de8:	e0020291 	mul	r2, r1, r2
    3dec:	e0822fa2 	add	r2, r2, r2, lsr #31
    3df0:	e15300c2 	cmp	r3, r2, asr #1
    3df4:	da000037 	ble	3ed8 <bmu_polling_loop+0xf9c>
    3df8:	e5903004 	ldr	r3, [r0, #4]
    3dfc:	e3530000 	cmp	r3, #0
    3e00:	da000005 	ble	3e1c <bmu_polling_loop+0xee0>
    3e04:	e594200c 	ldr	r2, [r4, #12]
    3e08:	e5922000 	ldr	r2, [r2]
    3e0c:	e2422005 	sub	r2, r2, #5
    3e10:	e1530002 	cmp	r3, r2
    3e14:	b5803024 	strlt	r3, [r0, #36]	; 0x24
    3e18:	ba00002e 	blt	3ed8 <bmu_polling_loop+0xf9c>
    3e1c:	e280000c 	add	r0, r0, #12
    3e20:	e51f7088 	ldr	r7, [pc, #-136]	; 3da0 <bmu_polling_loop+0xe64>
    3e24:	ebfff1ab 	bl	4d8 <afe_read_cell_volt>
    3e28:	e8940048 	ldm	r4, {r3, r6}
    3e2c:	e5931004 	ldr	r1, [r3, #4]
    3e30:	e596200c 	ldr	r2, [r6, #12]
    3e34:	e5d30000 	ldrb	r0, [r3]
    3e38:	ebfff070 	bl	0 <one_latitude_table>
    3e3c:	e3a01064 	mov	r1, #100	; 0x64
    3e40:	e5860008 	str	r0, [r6, #8]
    3e44:	e5946004 	ldr	r6, [r4, #4]
    3e48:	e5963008 	ldr	r3, [r6, #8]
    3e4c:	e3530064 	cmp	r3, #100	; 0x64
    3e50:	83a03032 	movhi	r3, #50	; 0x32
    3e54:	85863008 	strhi	r3, [r6, #8]
    3e58:	851f30c0 	ldrhi	r3, [pc, #-192]	; 3da0 <bmu_polling_loop+0xe64>
    3e5c:	e594200c 	ldr	r2, [r4, #12]
    3e60:	85936004 	ldrhi	r6, [r3, #4]
    3e64:	e592000c 	ldr	r0, [r2, #12]
    3e68:	85963008 	ldrhi	r3, [r6, #8]
    3e6c:	e0000390 	mul	r0, r0, r3
    3e70:	ebfffffe 	bl	0 <__aeabi_idiv>
    3e74:	e5860004 	str	r0, [r6, #4]
    3e78:	e594300c 	ldr	r3, [r4, #12]
    3e7c:	e5948004 	ldr	r8, [r4, #4]
    3e80:	e5936000 	ldr	r6, [r3]
    3e84:	e5980004 	ldr	r0, [r8, #4]
    3e88:	e246300a 	sub	r3, r6, #10
    3e8c:	e1500003 	cmp	r0, r3
    3e90:	ba000009 	blt	3ebc <bmu_polling_loop+0xf80>
    3e94:	e1a00006 	mov	r0, r6
    3e98:	e3a01064 	mov	r1, #100	; 0x64
    3e9c:	ebfffffe 	bl	0 <__aeabi_idiv>
    3ea0:	e0600006 	rsb	r0, r0, r6
    3ea4:	e5880004 	str	r0, [r8, #4]
    3ea8:	e5973004 	ldr	r3, [r7, #4]
    3eac:	e5932004 	ldr	r2, [r3, #4]
    3eb0:	e5832020 	str	r2, [r3, #32]
    3eb4:	e5973004 	ldr	r3, [r7, #4]
    3eb8:	e5930004 	ldr	r0, [r3, #4]
    3ebc:	ebfff279 	bl	8a8 <afe_write_car>
    3ec0:	e5943004 	ldr	r3, [r4, #4]
    3ec4:	e5932004 	ldr	r2, [r3, #4]
    3ec8:	e5832020 	str	r2, [r3, #32]
    3ecc:	e5943004 	ldr	r3, [r4, #4]
    3ed0:	e5932004 	ldr	r2, [r3, #4]
    3ed4:	e5832024 	str	r2, [r3, #36]	; 0x24
    3ed8:	e5950008 	ldr	r0, [r5, #8]
    3edc:	ebfff3a8 	bl	d84 <bmu_read_data>
    3ee0:	e5943000 	ldr	r3, [r4]
    3ee4:	e3a01064 	mov	r1, #100	; 0x64
    3ee8:	e5933010 	ldr	r3, [r3, #16]
    3eec:	e5937018 	ldr	r7, [r3, #24]
    3ef0:	e1a08000 	mov	r8, r0
    3ef4:	e3a0006e 	mov	r0, #110	; 0x6e
    3ef8:	e0000790 	mul	r0, r0, r7
    3efc:	ebfffffe 	bl	0 <__aeabi_idiv>
    3f00:	e1580000 	cmp	r8, r0
    3f04:	e1a06000 	mov	r6, r0
    3f08:	d1a06008 	movle	r6, r8
    3f0c:	ca0000b8 	bgt	41f4 <bmu_polling_loop+0x12b8>
    3f10:	e3560000 	cmp	r6, #0
    3f14:	da0000ad 	ble	41d0 <bmu_polling_loop+0x1294>
    3f18:	e3a00050 	mov	r0, #80	; 0x50
    3f1c:	e3a01064 	mov	r1, #100	; 0x64
    3f20:	e0000790 	mul	r0, r0, r7
    3f24:	ebfffffe 	bl	0 <__aeabi_idiv>
    3f28:	e1560000 	cmp	r6, r0
    3f2c:	ba00009f 	blt	41b0 <bmu_polling_loop+0x1274>
    3f30:	e594300c 	ldr	r3, [r4, #12]
    3f34:	e3a01064 	mov	r1, #100	; 0x64
    3f38:	e51f71a0 	ldr	r7, [pc, #-416]	; 3da0 <bmu_polling_loop+0xe64>
    3f3c:	e583600c 	str	r6, [r3, #12]
    3f40:	e8940108 	ldm	r4, {r3, r8}
    3f44:	e5933010 	ldr	r3, [r3, #16]
    3f48:	e598a024 	ldr	sl, [r8, #36]	; 0x24
    3f4c:	e5930018 	ldr	r0, [r3, #24]
    3f50:	ebfffffe 	bl	0 <__aeabi_idiv>
    3f54:	e594300c 	ldr	r3, [r4, #12]
    3f58:	e593300c 	ldr	r3, [r3, #12]
    3f5c:	e0803003 	add	r3, r0, r3
    3f60:	e15a0003 	cmp	sl, r3
    3f64:	ca0000c1 	bgt	4270 <bmu_polling_loop+0x1334>
    3f68:	e3a09064 	mov	r9, #100	; 0x64
    3f6c:	e51fb1d4 	ldr	fp, [pc, #-468]	; 3da0 <bmu_polling_loop+0xe64>
    3f70:	e00a0a99 	mul	sl, r9, sl
    3f74:	e588a008 	str	sl, [r8, #8]
    3f78:	e594300c 	ldr	r3, [r4, #12]
    3f7c:	e5947004 	ldr	r7, [r4, #4]
    3f80:	e593100c 	ldr	r1, [r3, #12]
    3f84:	e5970008 	ldr	r0, [r7, #8]
    3f88:	ebfffffe 	bl	0 <__aeabi_idiv>
    3f8c:	e1a01009 	mov	r1, r9
    3f90:	e5870008 	str	r0, [r7, #8]
    3f94:	e5947004 	ldr	r7, [r4, #4]
    3f98:	e594300c 	ldr	r3, [r4, #12]
    3f9c:	e5970008 	ldr	r0, [r7, #8]
    3fa0:	e593300c 	ldr	r3, [r3, #12]
    3fa4:	e0000390 	mul	r0, r0, r3
    3fa8:	ebfffffe 	bl	0 <__aeabi_idiv>
    3fac:	e5870004 	str	r0, [r7, #4]
    3fb0:	e594300c 	ldr	r3, [r4, #12]
    3fb4:	e5947004 	ldr	r7, [r4, #4]
    3fb8:	e5938000 	ldr	r8, [r3]
    3fbc:	e5972004 	ldr	r2, [r7, #4]
    3fc0:	e248300a 	sub	r3, r8, #10
    3fc4:	e1520003 	cmp	r2, r3
    3fc8:	ba000008 	blt	3ff0 <bmu_polling_loop+0x10b4>
    3fcc:	e1a01009 	mov	r1, r9
    3fd0:	e1a00008 	mov	r0, r8
    3fd4:	ebfffffe 	bl	0 <__aeabi_idiv>
    3fd8:	e0600008 	rsb	r0, r0, r8
    3fdc:	e5870004 	str	r0, [r7, #4]
    3fe0:	e59b3004 	ldr	r3, [fp, #4]
    3fe4:	e5932004 	ldr	r2, [r3, #4]
    3fe8:	e5832020 	str	r2, [r3, #32]
    3fec:	e59b7004 	ldr	r7, [fp, #4]
    3ff0:	e597100c 	ldr	r1, [r7, #12]
    3ff4:	e5d53000 	ldrb	r3, [r5]
    3ff8:	e51f0294 	ldr	r0, [pc, #-660]	; 3d6c <bmu_polling_loop+0xe30>
    3ffc:	e51f7264 	ldr	r7, [pc, #-612]	; 3da0 <bmu_polling_loop+0xe64>
    4000:	e0010391 	mul	r1, r1, r3
    4004:	ebfffffe 	bl	0 <printk>
    4008:	e5943004 	ldr	r3, [r4, #4]
    400c:	e51f02a4 	ldr	r0, [pc, #-676]	; 3d70 <bmu_polling_loop+0xe34>
    4010:	e5931008 	ldr	r1, [r3, #8]
    4014:	ebfffffe 	bl	0 <printk>
    4018:	e5943004 	ldr	r3, [r4, #4]
    401c:	e51f02b0 	ldr	r0, [pc, #-688]	; 3d74 <bmu_polling_loop+0xe38>
    4020:	e5931024 	ldr	r1, [r3, #36]	; 0x24
    4024:	ebfffffe 	bl	0 <printk>
    4028:	e594300c 	ldr	r3, [r4, #12]
    402c:	e51f02bc 	ldr	r0, [pc, #-700]	; 3d78 <bmu_polling_loop+0xe3c>
    4030:	e5931008 	ldr	r1, [r3, #8]
    4034:	ebfffffe 	bl	0 <printk>
    4038:	e594300c 	ldr	r3, [r4, #12]
    403c:	e51f02c8 	ldr	r0, [pc, #-712]	; 3d7c <bmu_polling_loop+0xe40>
    4040:	e593100c 	ldr	r1, [r3, #12]
    4044:	ebfffffe 	bl	0 <printk>
    4048:	e5943004 	ldr	r3, [r4, #4]
    404c:	e51f02d4 	ldr	r0, [pc, #-724]	; 3d80 <bmu_polling_loop+0xe44>
    4050:	e5931004 	ldr	r1, [r3, #4]
    4054:	ebfffffe 	bl	0 <printk>
    4058:	e5943004 	ldr	r3, [r4, #4]
    405c:	e51f02e0 	ldr	r0, [pc, #-736]	; 3d84 <bmu_polling_loop+0xe48>
    4060:	e5931010 	ldr	r1, [r3, #16]
    4064:	ebfffffe 	bl	0 <printk>
    4068:	e5943004 	ldr	r3, [r4, #4]
    406c:	e5930004 	ldr	r0, [r3, #4]
    4070:	ebfff20c 	bl	8a8 <afe_write_car>
    4074:	e5943004 	ldr	r3, [r4, #4]
    4078:	e5932004 	ldr	r2, [r3, #4]
    407c:	e5832020 	str	r2, [r3, #32]
    4080:	e3a03001 	mov	r3, #1
    4084:	e5942004 	ldr	r2, [r4, #4]
    4088:	e5c43024 	strb	r3, [r4, #36]	; 0x24
    408c:	e594300c 	ldr	r3, [r4, #12]
    4090:	e5922024 	ldr	r2, [r2, #36]	; 0x24
    4094:	e5832008 	str	r2, [r3, #8]
    4098:	e5943004 	ldr	r3, [r4, #4]
    409c:	e5933024 	ldr	r3, [r3, #36]	; 0x24
    40a0:	e1560003 	cmp	r6, r3
    40a4:	c0633006 	rsbgt	r3, r3, r6
    40a8:	d3a02000 	movle	r2, #0
    40ac:	d597300c 	ldrle	r3, [r7, #12]
    40b0:	c597200c 	ldrgt	r2, [r7, #12]
    40b4:	e51f631c 	ldr	r6, [pc, #-796]	; 3da0 <bmu_polling_loop+0xe64>
    40b8:	d5832010 	strle	r2, [r3, #16]
    40bc:	c5823010 	strgt	r3, [r2, #16]
    40c0:	e5943004 	ldr	r3, [r4, #4]
    40c4:	e5933008 	ldr	r3, [r3, #8]
    40c8:	e3530002 	cmp	r3, #2
    40cc:	ca000014 	bgt	4124 <bmu_polling_loop+0x11e8>
    40d0:	e596300c 	ldr	r3, [r6, #12]
    40d4:	e3a02001 	mov	r2, #1
    40d8:	e5c32006 	strb	r2, [r3, #6]
    40dc:	e5963004 	ldr	r3, [r6, #4]
    40e0:	e5933008 	ldr	r3, [r3, #8]
    40e4:	e3530000 	cmp	r3, #0
    40e8:	ca00000d 	bgt	4124 <bmu_polling_loop+0x11e8>
    40ec:	e596000c 	ldr	r0, [r6, #12]
    40f0:	e3a03000 	mov	r3, #0
    40f4:	e1a01003 	mov	r1, r3
    40f8:	e5c02004 	strb	r2, [r0, #4]
    40fc:	e5962004 	ldr	r2, [r6, #4]
    4100:	e5823008 	str	r3, [r2, #8]
    4104:	e596200c 	ldr	r2, [r6, #12]
    4108:	e5823008 	str	r3, [r2, #8]
    410c:	e596200c 	ldr	r2, [r6, #12]
    4110:	e5c23059 	strb	r3, [r2, #89]	; 0x59
    4114:	e595000c 	ldr	r0, [r5, #12]
    4118:	ebfff337 	bl	dfc <bmu_write_data>
    411c:	e5963004 	ldr	r3, [r6, #4]
    4120:	e5933008 	ldr	r3, [r3, #8]
    4124:	e3530063 	cmp	r3, #99	; 0x63
    4128:	ca00003d 	bgt	4224 <bmu_polling_loop+0x12e8>
    412c:	e353005e 	cmp	r3, #94	; 0x5e
    4130:	c3a02001 	movgt	r2, #1
    4134:	c594300c 	ldrgt	r3, [r4, #12]
    4138:	c5c32007 	strbgt	r2, [r3, #7]
    413c:	ebfff3cc 	bl	1074 <check_shutdwon_voltage>
    4140:	e5941004 	ldr	r1, [r4, #4]
    4144:	e594200c 	ldr	r2, [r4, #12]
    4148:	e51f33b0 	ldr	r3, [pc, #-944]	; 3da0 <bmu_polling_loop+0xe64>
    414c:	e5911008 	ldr	r1, [r1, #8]
    4150:	e5841028 	str	r1, [r4, #40]	; 0x28
    4154:	e5d22059 	ldrb	r2, [r2, #89]	; 0x59
    4158:	e3520000 	cmp	r2, #0
    415c:	13a02000 	movne	r2, #0
    4160:	03a02001 	moveq	r2, #1
    4164:	15c3202d 	strbne	r2, [r3, #45]	; 0x2d
    4168:	15c3202c 	strbne	r2, [r3, #44]	; 0x2c
    416c:	05c3202d 	strbeq	r2, [r3, #45]	; 0x2d
    4170:	05c3202c 	strbeq	r2, [r3, #44]	; 0x2c
    4174:	eafffcc7 	b	3498 <bmu_polling_loop+0x55c>
    4178:	e51f03f8 	ldr	r0, [pc, #-1016]	; 3d88 <bmu_polling_loop+0xe4c>
    417c:	ebfffffe 	bl	0 <printk>
    4180:	e596200c 	ldr	r2, [r6, #12]
    4184:	e3a03001 	mov	r3, #1
    4188:	e5c63011 	strb	r3, [r6, #17]
    418c:	e5c23005 	strb	r3, [r2, #5]
    4190:	ebfff401 	bl	119c <charge_end_process>
    4194:	e5c67012 	strb	r7, [r6, #18]
    4198:	eafffbd7 	b	30fc <bmu_polling_loop+0x1c0>
    419c:	e5973004 	ldr	r3, [r7, #4]
    41a0:	e51f041c 	ldr	r0, [pc, #-1052]	; 3d8c <bmu_polling_loop+0xe50>
    41a4:	e5931024 	ldr	r1, [r3, #36]	; 0x24
    41a8:	ebfffffe 	bl	0 <printk>
    41ac:	eafffc29 	b	3258 <bmu_polling_loop+0x31c>
    41b0:	e1a06000 	mov	r6, r0
    41b4:	e1a01006 	mov	r1, r6
    41b8:	e5950008 	ldr	r0, [r5, #8]
    41bc:	ebfff30e 	bl	dfc <bmu_write_data>
    41c0:	e1a01006 	mov	r1, r6
    41c4:	e51f043c 	ldr	r0, [pc, #-1084]	; 3d90 <bmu_polling_loop+0xe54>
    41c8:	ebfffffe 	bl	0 <printk>
    41cc:	eaffff57 	b	3f30 <bmu_polling_loop+0xff4>
    41d0:	e5943000 	ldr	r3, [r4]
    41d4:	e3a00050 	mov	r0, #80	; 0x50
    41d8:	e3a01064 	mov	r1, #100	; 0x64
    41dc:	e5933010 	ldr	r3, [r3, #16]
    41e0:	e5933018 	ldr	r3, [r3, #24]
    41e4:	e0000390 	mul	r0, r0, r3
    41e8:	ebfffffe 	bl	0 <__aeabi_idiv>
    41ec:	e1a06000 	mov	r6, r0
    41f0:	eaffffef 	b	41b4 <bmu_polling_loop+0x1278>
    41f4:	e51f3468 	ldr	r3, [pc, #-1128]	; 3d94 <bmu_polling_loop+0xe58>
    41f8:	e1a01006 	mov	r1, r6
    41fc:	e5930008 	ldr	r0, [r3, #8]
    4200:	ebfff2fd 	bl	dfc <bmu_write_data>
    4204:	e51f0474 	ldr	r0, [pc, #-1140]	; 3d98 <bmu_polling_loop+0xe5c>
    4208:	e1a01006 	mov	r1, r6
    420c:	ebfffffe 	bl	0 <printk>
    4210:	e51f3478 	ldr	r3, [pc, #-1144]	; 3da0 <bmu_polling_loop+0xe64>
    4214:	e5933000 	ldr	r3, [r3]
    4218:	e5933010 	ldr	r3, [r3, #16]
    421c:	e5937018 	ldr	r7, [r3, #24]
    4220:	eaffff3a 	b	3f10 <bmu_polling_loop+0xfd4>
    4224:	e594000c 	ldr	r0, [r4, #12]
    4228:	e3a02001 	mov	r2, #1
    422c:	e3a0c064 	mov	ip, #100	; 0x64
    4230:	e3a03000 	mov	r3, #0
    4234:	e1a01003 	mov	r1, r3
    4238:	e5c02005 	strb	r2, [r0, #5]
    423c:	e5940004 	ldr	r0, [r4, #4]
    4240:	e580c008 	str	ip, [r0, #8]
    4244:	e594000c 	ldr	r0, [r4, #12]
    4248:	e5803010 	str	r3, [r0, #16]
    424c:	e594000c 	ldr	r0, [r4, #12]
    4250:	e5c02007 	strb	r2, [r0, #7]
    4254:	e594200c 	ldr	r2, [r4, #12]
    4258:	e5c23059 	strb	r3, [r2, #89]	; 0x59
    425c:	e595000c 	ldr	r0, [r5, #12]
    4260:	ebfff2e5 	bl	dfc <bmu_write_data>
    4264:	e5943004 	ldr	r3, [r4, #4]
    4268:	e5933008 	ldr	r3, [r3, #8]
    426c:	eaffffae 	b	412c <bmu_polling_loop+0x11f0>
    4270:	e1a0100a 	mov	r1, sl
    4274:	e51f04e0 	ldr	r0, [pc, #-1248]	; 3d9c <bmu_polling_loop+0xe60>
    4278:	ebfffffe 	bl	0 <printk>
    427c:	e5973000 	ldr	r3, [r7]
    4280:	e3a01064 	mov	r1, #100	; 0x64
    4284:	e5978004 	ldr	r8, [r7, #4]
    4288:	e5933010 	ldr	r3, [r3, #16]
    428c:	e5930018 	ldr	r0, [r3, #24]
    4290:	ebfffffe 	bl	0 <__aeabi_idiv>
    4294:	e597300c 	ldr	r3, [r7, #12]
    4298:	e593300c 	ldr	r3, [r3, #12]
    429c:	e0803003 	add	r3, r0, r3
    42a0:	e5883024 	str	r3, [r8, #36]	; 0x24
    42a4:	e5973004 	ldr	r3, [r7, #4]
    42a8:	e5950010 	ldr	r0, [r5, #16]
    42ac:	e5931024 	ldr	r1, [r3, #36]	; 0x24
    42b0:	ebfff2d1 	bl	dfc <bmu_write_data>
    42b4:	e5978004 	ldr	r8, [r7, #4]
    42b8:	e598a024 	ldr	sl, [r8, #36]	; 0x24
    42bc:	eaffff29 	b	3f68 <bmu_polling_loop+0x102c>
    42c0:	e3a00007 	mov	r0, #7
    42c4:	ebfff1a1 	bl	950 <afe_write_board_offset>
    42c8:	eafffd87 	b	38ec <bmu_polling_loop+0x9b0>
    42cc:	e3a01020 	mov	r1, #32
    42d0:	e3a00009 	mov	r0, #9
    42d4:	ebfff45c 	bl	144c <afe_register_write_byte>
    42d8:	eafffe53 	b	3c2c <bmu_polling_loop+0xcf0>
    42dc:	e596300c 	ldr	r3, [r6, #12]
    42e0:	e3a02000 	mov	r2, #0
    42e4:	e5832008 	str	r2, [r3, #8]
    42e8:	e5963004 	ldr	r3, [r6, #4]
    42ec:	e5933008 	ldr	r3, [r3, #8]
    42f0:	e1530002 	cmp	r3, r2
    42f4:	cafffd54 	bgt	384c <bmu_polling_loop+0x910>
    42f8:	e596300c 	ldr	r3, [r6, #12]
    42fc:	e5c35004 	strb	r5, [r3, #4]
    4300:	e5963004 	ldr	r3, [r6, #4]
    4304:	e5832008 	str	r2, [r3, #8]
    4308:	e5963004 	ldr	r3, [r6, #4]
    430c:	e5933008 	ldr	r3, [r3, #8]
    4310:	eafffd4d 	b	384c <bmu_polling_loop+0x910>
    4314:	e3a00007 	mov	r0, #7
    4318:	ebfff18c 	bl	950 <afe_write_board_offset>
    431c:	eafffc81 	b	3528 <bmu_polling_loop+0x5ec>
    4320:	e3a01020 	mov	r1, #32
    4324:	e3a00009 	mov	r0, #9
    4328:	ebfff447 	bl	144c <afe_register_write_byte>
    432c:	eafffc1b 	b	33a0 <bmu_polling_loop+0x464>
    4330:	e287000c 	add	r0, r7, #12
    4334:	e51f759c 	ldr	r7, [pc, #-1436]	; 3da0 <bmu_polling_loop+0xe64>
    4338:	ebfff066 	bl	4d8 <afe_read_cell_volt>
    433c:	e8940048 	ldm	r4, {r3, r6}
    4340:	e5931004 	ldr	r1, [r3, #4]
    4344:	e596200c 	ldr	r2, [r6, #12]
    4348:	e5d30000 	ldrb	r0, [r3]
    434c:	ebffef2b 	bl	0 <one_latitude_table>
    4350:	e3a01064 	mov	r1, #100	; 0x64
    4354:	e5860008 	str	r0, [r6, #8]
    4358:	e5946004 	ldr	r6, [r4, #4]
    435c:	e5963008 	ldr	r3, [r6, #8]
    4360:	e3530064 	cmp	r3, #100	; 0x64
    4364:	83a03032 	movhi	r3, #50	; 0x32
    4368:	85863008 	strhi	r3, [r6, #8]
    436c:	851f35d4 	ldrhi	r3, [pc, #-1492]	; 3da0 <bmu_polling_loop+0xe64>
    4370:	e594200c 	ldr	r2, [r4, #12]
    4374:	85936004 	ldrhi	r6, [r3, #4]
    4378:	e592000c 	ldr	r0, [r2, #12]
    437c:	85963008 	ldrhi	r3, [r6, #8]
    4380:	e0000390 	mul	r0, r0, r3
    4384:	ebfffffe 	bl	0 <__aeabi_idiv>
    4388:	e5860004 	str	r0, [r6, #4]
    438c:	e594300c 	ldr	r3, [r4, #12]
    4390:	e5948004 	ldr	r8, [r4, #4]
    4394:	e5936000 	ldr	r6, [r3]
    4398:	e5980004 	ldr	r0, [r8, #4]
    439c:	e246300a 	sub	r3, r6, #10
    43a0:	e1500003 	cmp	r0, r3
    43a4:	ba000009 	blt	43d0 <bmu_polling_loop+0x1494>
    43a8:	e1a00006 	mov	r0, r6
    43ac:	e3a01064 	mov	r1, #100	; 0x64
    43b0:	ebfffffe 	bl	0 <__aeabi_idiv>
    43b4:	e0600006 	rsb	r0, r0, r6
    43b8:	e5880004 	str	r0, [r8, #4]
    43bc:	e5973004 	ldr	r3, [r7, #4]
    43c0:	e5932004 	ldr	r2, [r3, #4]
    43c4:	e5832020 	str	r2, [r3, #32]
    43c8:	e5973004 	ldr	r3, [r7, #4]
    43cc:	e5930004 	ldr	r0, [r3, #4]
    43d0:	ebfff134 	bl	8a8 <afe_write_car>
    43d4:	e5943004 	ldr	r3, [r4, #4]
    43d8:	e5932004 	ldr	r2, [r3, #4]
    43dc:	e5832020 	str	r2, [r3, #32]
    43e0:	e5943004 	ldr	r3, [r4, #4]
    43e4:	e5932004 	ldr	r2, [r3, #4]
    43e8:	e5832024 	str	r2, [r3, #36]	; 0x24
    43ec:	eafffcbd 	b	36e8 <bmu_polling_loop+0x7ac>
